
ATM_ECU.elf:     file format elf32-avr

Sections:
Idx Name          Size      VMA       LMA       File off  Algn
  0 .text         00002f34  00000000  00000000  00000094  2**1
                  CONTENTS, ALLOC, LOAD, READONLY, CODE
  1 .data         000003c2  00800060  00002f34  00002fc8  2**0
                  CONTENTS, ALLOC, LOAD, DATA
  2 .bss          0000009a  00800422  00800422  0000338a  2**0
                  ALLOC
  3 .comment      00000030  00000000  00000000  0000338a  2**0
                  CONTENTS, READONLY
  4 .note.gnu.avr.deviceinfo 0000003c  00000000  00000000  000033bc  2**2
                  CONTENTS, READONLY
  5 .debug_aranges 00000610  00000000  00000000  000033f8  2**0
                  CONTENTS, READONLY, DEBUGGING
  6 .debug_info   00006972  00000000  00000000  00003a08  2**0
                  CONTENTS, READONLY, DEBUGGING
  7 .debug_abbrev 00001b54  00000000  00000000  0000a37a  2**0
                  CONTENTS, READONLY, DEBUGGING
  8 .debug_line   00003dc3  00000000  00000000  0000bece  2**0
                  CONTENTS, READONLY, DEBUGGING
  9 .debug_frame  00001194  00000000  00000000  0000fc94  2**2
                  CONTENTS, READONLY, DEBUGGING
 10 .debug_str    000015a2  00000000  00000000  00010e28  2**0
                  CONTENTS, READONLY, DEBUGGING
 11 .debug_loc    000051d0  00000000  00000000  000123ca  2**0
                  CONTENTS, READONLY, DEBUGGING
 12 .debug_ranges 00000588  00000000  00000000  0001759a  2**0
                  CONTENTS, READONLY, DEBUGGING

Disassembly of section .text:

00000000 <__vectors>:
       0:	0c 94 7b 00 	jmp	0xf6	; 0xf6 <__ctors_end>
       4:	0c 94 98 00 	jmp	0x130	; 0x130 <__bad_interrupt>
       8:	0c 94 98 00 	jmp	0x130	; 0x130 <__bad_interrupt>
       c:	0c 94 98 00 	jmp	0x130	; 0x130 <__bad_interrupt>
      10:	0c 94 d2 12 	jmp	0x25a4	; 0x25a4 <__vector_4>
      14:	0c 94 a9 12 	jmp	0x2552	; 0x2552 <__vector_5>
      18:	0c 94 98 00 	jmp	0x130	; 0x130 <__bad_interrupt>
      1c:	0c 94 98 00 	jmp	0x130	; 0x130 <__bad_interrupt>
      20:	0c 94 98 00 	jmp	0x130	; 0x130 <__bad_interrupt>
      24:	0c 94 98 00 	jmp	0x130	; 0x130 <__bad_interrupt>
      28:	0c 94 80 12 	jmp	0x2500	; 0x2500 <__vector_10>
      2c:	0c 94 57 12 	jmp	0x24ae	; 0x24ae <__vector_11>
      30:	0c 94 2e 12 	jmp	0x245c	; 0x245c <__vector_12>
      34:	0c 94 52 13 	jmp	0x26a4	; 0x26a4 <__vector_13>
      38:	0c 94 79 13 	jmp	0x26f2	; 0x26f2 <__vector_14>
      3c:	0c 94 a0 13 	jmp	0x2740	; 0x2740 <__vector_15>
      40:	0c 94 36 10 	jmp	0x206c	; 0x206c <__vector_16>
      44:	0c 94 98 00 	jmp	0x130	; 0x130 <__bad_interrupt>
      48:	0c 94 98 00 	jmp	0x130	; 0x130 <__bad_interrupt>
      4c:	0c 94 98 00 	jmp	0x130	; 0x130 <__bad_interrupt>
      50:	0c 94 98 00 	jmp	0x130	; 0x130 <__bad_interrupt>
      54:	0f 0f       	add	r16, r31
      56:	13 0f       	add	r17, r19
      58:	17 0f       	add	r17, r23
      5a:	1b 0f       	add	r17, r27
      5c:	1f 0f       	add	r17, r31
      5e:	23 0f       	add	r18, r19
      60:	27 0f       	add	r18, r23
      62:	2b 0f       	add	r18, r27
      64:	49 0f       	add	r20, r25
      66:	66 0f       	add	r22, r22
      68:	6d 0f       	add	r22, r29
      6a:	74 0f       	add	r23, r20
      6c:	7b 0f       	add	r23, r27
      6e:	82 0f       	add	r24, r18
      70:	89 0f       	add	r24, r25
      72:	90 0f       	add	r25, r16
      74:	07 63       	ori	r16, 0x37	; 55
      76:	42 36       	cpi	r20, 0x62	; 98
      78:	b7 9b       	sbis	0x16, 7	; 22
      7a:	d8 a7       	std	Y+40, r29	; 0x28
      7c:	1a 39       	cpi	r17, 0x9A	; 154
      7e:	68 56       	subi	r22, 0x68	; 104
      80:	18 ae       	std	Y+56, r1	; 0x38
      82:	ba ab       	std	Y+50, r27	; 0x32
      84:	55 8c       	ldd	r5, Z+29	; 0x1d
      86:	1d 3c       	cpi	r17, 0xCD	; 205
      88:	b7 cc       	rjmp	.-1682   	; 0xfffff9f8 <__eeprom_end+0xff7ef9f8>
      8a:	57 63       	ori	r21, 0x37	; 55
      8c:	bd 6d       	ori	r27, 0xDD	; 221
      8e:	ed fd       	.word	0xfded	; ????
      90:	75 3e       	cpi	r23, 0xE5	; 229
      92:	f6 17       	cp	r31, r22
      94:	72 31       	cpi	r23, 0x12	; 18
      96:	bf 00       	.word	0x00bf	; ????
      98:	00 00       	nop
      9a:	80 3f       	cpi	r24, 0xF0	; 240
      9c:	08 00       	.word	0x0008	; ????
      9e:	00 00       	nop
      a0:	be 92       	st	-X, r11
      a2:	24 49       	sbci	r18, 0x94	; 148
      a4:	12 3e       	cpi	r17, 0xE2	; 226
      a6:	ab aa       	std	Y+51, r10	; 0x33
      a8:	aa 2a       	or	r10, r26
      aa:	be cd       	rjmp	.-1156   	; 0xfffffc28 <__eeprom_end+0xff7efc28>
      ac:	cc cc       	rjmp	.-1640   	; 0xfffffa46 <__eeprom_end+0xff7efa46>
      ae:	4c 3e       	cpi	r20, 0xEC	; 236
      b0:	00 00       	nop
      b2:	00 80       	ld	r0, Z
      b4:	be ab       	std	Y+54, r27	; 0x36
      b6:	aa aa       	std	Y+50, r10	; 0x32
      b8:	aa 3e       	cpi	r26, 0xEA	; 234
      ba:	00 00       	nop
      bc:	00 00       	nop
      be:	bf 00       	.word	0x00bf	; ????
      c0:	00 00       	nop
      c2:	80 3f       	cpi	r24, 0xF0	; 240
      c4:	00 00       	nop
      c6:	00 00       	nop
      c8:	00 08       	sbc	r0, r0
      ca:	41 78       	andi	r20, 0x81	; 129
      cc:	d3 bb       	out	0x13, r29	; 19
      ce:	43 87       	std	Z+11, r20	; 0x0b
      d0:	d1 13       	cpse	r29, r17
      d2:	3d 19       	sub	r19, r13
      d4:	0e 3c       	cpi	r16, 0xCE	; 206
      d6:	c3 bd       	out	0x23, r28	; 35
      d8:	42 82       	std	Z+2, r4	; 0x02
      da:	ad 2b       	or	r26, r29
      dc:	3e 68       	ori	r19, 0x8E	; 142
      de:	ec 82       	std	Y+4, r14	; 0x04
      e0:	76 be       	out	0x36, r7	; 54
      e2:	d9 8f       	std	Y+25, r29	; 0x19
      e4:	e1 a9       	ldd	r30, Z+49	; 0x31
      e6:	3e 4c       	sbci	r19, 0xCE	; 206
      e8:	80 ef       	ldi	r24, 0xF0	; 240
      ea:	ff be       	out	0x3f, r15	; 63
      ec:	01 c4       	rjmp	.+2050   	; 0x8f0 <ADMIN_Mode+0x38>
      ee:	ff 7f       	andi	r31, 0xFF	; 255
      f0:	3f 00       	.word	0x003f	; ????
      f2:	00 00       	nop
	...

000000f6 <__ctors_end>:
      f6:	11 24       	eor	r1, r1
      f8:	1f be       	out	0x3f, r1	; 63
      fa:	cf e5       	ldi	r28, 0x5F	; 95
      fc:	d8 e0       	ldi	r29, 0x08	; 8
      fe:	de bf       	out	0x3e, r29	; 62
     100:	cd bf       	out	0x3d, r28	; 61

00000102 <__do_copy_data>:
     102:	14 e0       	ldi	r17, 0x04	; 4
     104:	a0 e6       	ldi	r26, 0x60	; 96
     106:	b0 e0       	ldi	r27, 0x00	; 0
     108:	e4 e3       	ldi	r30, 0x34	; 52
     10a:	ff e2       	ldi	r31, 0x2F	; 47
     10c:	02 c0       	rjmp	.+4      	; 0x112 <__do_copy_data+0x10>
     10e:	05 90       	lpm	r0, Z+
     110:	0d 92       	st	X+, r0
     112:	a2 32       	cpi	r26, 0x22	; 34
     114:	b1 07       	cpc	r27, r17
     116:	d9 f7       	brne	.-10     	; 0x10e <__do_copy_data+0xc>

00000118 <__do_clear_bss>:
     118:	24 e0       	ldi	r18, 0x04	; 4
     11a:	a2 e2       	ldi	r26, 0x22	; 34
     11c:	b4 e0       	ldi	r27, 0x04	; 4
     11e:	01 c0       	rjmp	.+2      	; 0x122 <.do_clear_bss_start>

00000120 <.do_clear_bss_loop>:
     120:	1d 92       	st	X+, r1

00000122 <.do_clear_bss_start>:
     122:	ac 3b       	cpi	r26, 0xBC	; 188
     124:	b2 07       	cpc	r27, r18
     126:	e1 f7       	brne	.-8      	; 0x120 <.do_clear_bss_loop>
     128:	0e 94 ff 0f 	call	0x1ffe	; 0x1ffe <main>
     12c:	0c 94 98 17 	jmp	0x2f30	; 0x2f30 <_exit>

00000130 <__bad_interrupt>:
     130:	0c 94 00 00 	jmp	0	; 0x0 <__vectors>

00000134 <reverse>:
}

void Init_Drivers()
{
	UART_Init(UART_CH);
	EEPROM_Init(EEPROM_CH);
     134:	9c 01       	movw	r18, r24
     136:	61 50       	subi	r22, 0x01	; 1
     138:	90 e0       	ldi	r25, 0x00	; 0
     13a:	0c c0       	rjmp	.+24     	; 0x154 <reverse+0x20>
     13c:	d9 01       	movw	r26, r18
     13e:	a9 0f       	add	r26, r25
     140:	b1 1d       	adc	r27, r1
     142:	8c 91       	ld	r24, X
     144:	f9 01       	movw	r30, r18
     146:	e6 0f       	add	r30, r22
     148:	f1 1d       	adc	r31, r1
     14a:	40 81       	ld	r20, Z
     14c:	4c 93       	st	X, r20
     14e:	80 83       	st	Z, r24
     150:	9f 5f       	subi	r25, 0xFF	; 255
     152:	61 50       	subi	r22, 0x01	; 1
     154:	96 17       	cp	r25, r22
     156:	90 f3       	brcs	.-28     	; 0x13c <reverse+0x8>
     158:	08 95       	ret

0000015a <intToStr>:
     15a:	ef 92       	push	r14
     15c:	ff 92       	push	r15
     15e:	0f 93       	push	r16
     160:	1f 93       	push	r17
     162:	cf 93       	push	r28
     164:	df 93       	push	r29
     166:	fc 01       	movw	r30, r24
     168:	8b 01       	movw	r16, r22
     16a:	c0 e0       	ldi	r28, 0x00	; 0
     16c:	d0 e0       	ldi	r29, 0x00	; 0
     16e:	2d c0       	rjmp	.+90     	; 0x1ca <intToStr+0x70>
     170:	78 01       	movw	r14, r16
     172:	ec 0e       	add	r14, r28
     174:	fd 1e       	adc	r15, r29
     176:	9f 01       	movw	r18, r30
     178:	ad ec       	ldi	r26, 0xCD	; 205
     17a:	bc ec       	ldi	r27, 0xCC	; 204
     17c:	0e 94 89 17 	call	0x2f12	; 0x2f12 <__umulhisi3>
     180:	96 95       	lsr	r25
     182:	87 95       	ror	r24
     184:	96 95       	lsr	r25
     186:	87 95       	ror	r24
     188:	96 95       	lsr	r25
     18a:	87 95       	ror	r24
     18c:	9c 01       	movw	r18, r24
     18e:	22 0f       	add	r18, r18
     190:	33 1f       	adc	r19, r19
     192:	88 0f       	add	r24, r24
     194:	99 1f       	adc	r25, r25
     196:	88 0f       	add	r24, r24
     198:	99 1f       	adc	r25, r25
     19a:	88 0f       	add	r24, r24
     19c:	99 1f       	adc	r25, r25
     19e:	82 0f       	add	r24, r18
     1a0:	93 1f       	adc	r25, r19
     1a2:	9f 01       	movw	r18, r30
     1a4:	28 1b       	sub	r18, r24
     1a6:	39 0b       	sbc	r19, r25
     1a8:	c9 01       	movw	r24, r18
     1aa:	80 5d       	subi	r24, 0xD0	; 208
     1ac:	d7 01       	movw	r26, r14
     1ae:	8c 93       	st	X, r24
     1b0:	9f 01       	movw	r18, r30
     1b2:	ad ec       	ldi	r26, 0xCD	; 205
     1b4:	bc ec       	ldi	r27, 0xCC	; 204
     1b6:	0e 94 89 17 	call	0x2f12	; 0x2f12 <__umulhisi3>
     1ba:	fc 01       	movw	r30, r24
     1bc:	f6 95       	lsr	r31
     1be:	e7 95       	ror	r30
     1c0:	f6 95       	lsr	r31
     1c2:	e7 95       	ror	r30
     1c4:	f6 95       	lsr	r31
     1c6:	e7 95       	ror	r30
     1c8:	21 96       	adiw	r28, 0x01	; 1
     1ca:	30 97       	sbiw	r30, 0x00	; 0
     1cc:	89 f6       	brne	.-94     	; 0x170 <intToStr+0x16>
     1ce:	06 c0       	rjmp	.+12     	; 0x1dc <intToStr+0x82>
     1d0:	f8 01       	movw	r30, r16
     1d2:	ec 0f       	add	r30, r28
     1d4:	fd 1f       	adc	r31, r29
     1d6:	80 e3       	ldi	r24, 0x30	; 48
     1d8:	80 83       	st	Z, r24
     1da:	21 96       	adiw	r28, 0x01	; 1
     1dc:	c4 17       	cp	r28, r20
     1de:	d5 07       	cpc	r29, r21
     1e0:	b8 f3       	brcs	.-18     	; 0x1d0 <intToStr+0x76>
     1e2:	6c 2f       	mov	r22, r28
     1e4:	c8 01       	movw	r24, r16
     1e6:	0e 94 9a 00 	call	0x134	; 0x134 <reverse>
     1ea:	f8 01       	movw	r30, r16
     1ec:	ec 0f       	add	r30, r28
     1ee:	fd 1f       	adc	r31, r29
     1f0:	10 82       	st	Z, r1
     1f2:	8c 2f       	mov	r24, r28
     1f4:	df 91       	pop	r29
     1f6:	cf 91       	pop	r28
     1f8:	1f 91       	pop	r17
     1fa:	0f 91       	pop	r16
     1fc:	ff 90       	pop	r15
     1fe:	ef 90       	pop	r14
     200:	08 95       	ret

00000202 <ftos>:
     202:	4f 92       	push	r4
     204:	5f 92       	push	r5
     206:	6f 92       	push	r6
     208:	7f 92       	push	r7
     20a:	8f 92       	push	r8
     20c:	9f 92       	push	r9
     20e:	af 92       	push	r10
     210:	bf 92       	push	r11
     212:	ef 92       	push	r14
     214:	ff 92       	push	r15
     216:	1f 93       	push	r17
     218:	cf 93       	push	r28
     21a:	df 93       	push	r29
     21c:	2b 01       	movw	r4, r22
     21e:	3c 01       	movw	r6, r24
     220:	7a 01       	movw	r14, r20
     222:	12 2f       	mov	r17, r18
     224:	0e 94 ab 14 	call	0x2956	; 0x2956 <__fixunssfsi>
     228:	4b 01       	movw	r8, r22
     22a:	5c 01       	movw	r10, r24
     22c:	80 e0       	ldi	r24, 0x00	; 0
     22e:	90 e0       	ldi	r25, 0x00	; 0
     230:	0e 94 da 14 	call	0x29b4	; 0x29b4 <__floatunsisf>
     234:	9b 01       	movw	r18, r22
     236:	ac 01       	movw	r20, r24
     238:	c3 01       	movw	r24, r6
     23a:	b2 01       	movw	r22, r4
     23c:	0e 94 c7 13 	call	0x278e	; 0x278e <__subsf3>
     240:	2b 01       	movw	r4, r22
     242:	3c 01       	movw	r6, r24
     244:	40 e0       	ldi	r20, 0x00	; 0
     246:	50 e0       	ldi	r21, 0x00	; 0
     248:	b7 01       	movw	r22, r14
     24a:	c4 01       	movw	r24, r8
     24c:	0e 94 ad 00 	call	0x15a	; 0x15a <intToStr>
     250:	c8 2f       	mov	r28, r24
     252:	d0 e0       	ldi	r29, 0x00	; 0
     254:	11 23       	and	r17, r17
     256:	31 f1       	breq	.+76     	; 0x2a4 <ftos+0xa2>
     258:	f7 01       	movw	r30, r14
     25a:	ec 0f       	add	r30, r28
     25c:	fd 1f       	adc	r31, r29
     25e:	8e e2       	ldi	r24, 0x2E	; 46
     260:	80 83       	st	Z, r24
     262:	61 2f       	mov	r22, r17
     264:	70 e0       	ldi	r23, 0x00	; 0
     266:	80 e0       	ldi	r24, 0x00	; 0
     268:	90 e0       	ldi	r25, 0x00	; 0
     26a:	0e 94 da 14 	call	0x29b4	; 0x29b4 <__floatunsisf>
     26e:	9b 01       	movw	r18, r22
     270:	ac 01       	movw	r20, r24
     272:	60 e0       	ldi	r22, 0x00	; 0
     274:	70 e0       	ldi	r23, 0x00	; 0
     276:	80 e2       	ldi	r24, 0x20	; 32
     278:	91 e4       	ldi	r25, 0x41	; 65
     27a:	0e 94 fe 15 	call	0x2bfc	; 0x2bfc <pow>
     27e:	9b 01       	movw	r18, r22
     280:	ac 01       	movw	r20, r24
     282:	c3 01       	movw	r24, r6
     284:	b2 01       	movw	r22, r4
     286:	0e 94 91 15 	call	0x2b22	; 0x2b22 <__mulsf3>
     28a:	21 96       	adiw	r28, 0x01	; 1
     28c:	a1 2e       	mov	r10, r17
     28e:	b1 2c       	mov	r11, r1
     290:	ce 0d       	add	r28, r14
     292:	df 1d       	adc	r29, r15
     294:	0e 94 ab 14 	call	0x2956	; 0x2956 <__fixunssfsi>
     298:	dc 01       	movw	r26, r24
     29a:	cb 01       	movw	r24, r22
     29c:	a5 01       	movw	r20, r10
     29e:	be 01       	movw	r22, r28
     2a0:	0e 94 ad 00 	call	0x15a	; 0x15a <intToStr>
     2a4:	df 91       	pop	r29
     2a6:	cf 91       	pop	r28
     2a8:	1f 91       	pop	r17
     2aa:	ff 90       	pop	r15
     2ac:	ef 90       	pop	r14
     2ae:	bf 90       	pop	r11
     2b0:	af 90       	pop	r10
     2b2:	9f 90       	pop	r9
     2b4:	8f 90       	pop	r8
     2b6:	7f 90       	pop	r7
     2b8:	6f 90       	pop	r6
     2ba:	5f 90       	pop	r5
     2bc:	4f 90       	pop	r4
     2be:	08 95       	ret

000002c0 <findLength>:
     2c0:	ac 01       	movw	r20, r24
     2c2:	80 e0       	ldi	r24, 0x00	; 0
     2c4:	90 e0       	ldi	r25, 0x00	; 0
     2c6:	01 c0       	rjmp	.+2      	; 0x2ca <findLength+0xa>
     2c8:	01 96       	adiw	r24, 0x01	; 1
     2ca:	fa 01       	movw	r30, r20
     2cc:	e8 0f       	add	r30, r24
     2ce:	f9 1f       	adc	r31, r25
     2d0:	20 81       	ld	r18, Z
     2d2:	21 11       	cpse	r18, r1
     2d4:	f9 cf       	rjmp	.-14     	; 0x2c8 <findLength+0x8>
     2d6:	08 95       	ret

000002d8 <Validate_PAN>:
     2d8:	88 e3       	ldi	r24, 0x38	; 56
     2da:	94 e0       	ldi	r25, 0x04	; 4
     2dc:	0e 94 60 01 	call	0x2c0	; 0x2c0 <findLength>
     2e0:	09 97       	sbiw	r24, 0x09	; 9
     2e2:	a9 f4       	brne	.+42     	; 0x30e <Validate_PAN+0x36>
     2e4:	20 e0       	ldi	r18, 0x00	; 0
     2e6:	0f c0       	rjmp	.+30     	; 0x306 <Validate_PAN+0x2e>
     2e8:	82 2f       	mov	r24, r18
     2ea:	90 e0       	ldi	r25, 0x00	; 0
     2ec:	fc 01       	movw	r30, r24
     2ee:	e8 5c       	subi	r30, 0xC8	; 200
     2f0:	fb 4f       	sbci	r31, 0xFB	; 251
     2f2:	30 81       	ld	r19, Z
     2f4:	30 33       	cpi	r19, 0x30	; 48
     2f6:	68 f0       	brcs	.+26     	; 0x312 <Validate_PAN+0x3a>
     2f8:	fc 01       	movw	r30, r24
     2fa:	e8 5c       	subi	r30, 0xC8	; 200
     2fc:	fb 4f       	sbci	r31, 0xFB	; 251
     2fe:	80 81       	ld	r24, Z
     300:	8a 33       	cpi	r24, 0x3A	; 58
     302:	48 f4       	brcc	.+18     	; 0x316 <Validate_PAN+0x3e>
     304:	2f 5f       	subi	r18, 0xFF	; 255
     306:	29 30       	cpi	r18, 0x09	; 9
     308:	78 f3       	brcs	.-34     	; 0x2e8 <Validate_PAN+0x10>
     30a:	81 e0       	ldi	r24, 0x01	; 1
     30c:	08 95       	ret
     30e:	80 e0       	ldi	r24, 0x00	; 0
     310:	08 95       	ret
     312:	80 e0       	ldi	r24, 0x00	; 0
     314:	08 95       	ret
     316:	80 e0       	ldi	r24, 0x00	; 0
     318:	08 95       	ret

0000031a <stof>:
     31a:	8f 92       	push	r8
     31c:	9f 92       	push	r9
     31e:	af 92       	push	r10
     320:	bf 92       	push	r11
     322:	cf 92       	push	r12
     324:	df 92       	push	r13
     326:	ef 92       	push	r14
     328:	ff 92       	push	r15
     32a:	0f 93       	push	r16
     32c:	1f 93       	push	r17
     32e:	cf 93       	push	r28
     330:	df 93       	push	r29
     332:	5c 01       	movw	r10, r24
     334:	0e 94 60 01 	call	0x2c0	; 0x2c0 <findLength>
     338:	8c 01       	movw	r16, r24
     33a:	91 2c       	mov	r9, r1
     33c:	c0 e0       	ldi	r28, 0x00	; 0
     33e:	d0 e0       	ldi	r29, 0x00	; 0
     340:	60 e0       	ldi	r22, 0x00	; 0
     342:	70 e0       	ldi	r23, 0x00	; 0
     344:	cb 01       	movw	r24, r22
     346:	23 c0       	rjmp	.+70     	; 0x38e <stof+0x74>
     348:	f5 01       	movw	r30, r10
     34a:	e2 0f       	add	r30, r18
     34c:	f3 1f       	adc	r31, r19
     34e:	80 80       	ld	r8, Z
     350:	4e e2       	ldi	r20, 0x2E	; 46
     352:	84 12       	cpse	r8, r20
     354:	05 c0       	rjmp	.+10     	; 0x360 <stof+0x46>
     356:	e8 01       	movw	r28, r16
     358:	c2 1b       	sub	r28, r18
     35a:	d3 0b       	sbc	r29, r19
     35c:	21 97       	sbiw	r28, 0x01	; 1
     35e:	16 c0       	rjmp	.+44     	; 0x38c <stof+0x72>
     360:	20 e0       	ldi	r18, 0x00	; 0
     362:	30 e0       	ldi	r19, 0x00	; 0
     364:	40 e2       	ldi	r20, 0x20	; 32
     366:	51 e4       	ldi	r21, 0x41	; 65
     368:	0e 94 91 15 	call	0x2b22	; 0x2b22 <__mulsf3>
     36c:	6b 01       	movw	r12, r22
     36e:	7c 01       	movw	r14, r24
     370:	68 2d       	mov	r22, r8
     372:	70 e0       	ldi	r23, 0x00	; 0
     374:	60 53       	subi	r22, 0x30	; 48
     376:	71 09       	sbc	r23, r1
     378:	07 2e       	mov	r0, r23
     37a:	00 0c       	add	r0, r0
     37c:	88 0b       	sbc	r24, r24
     37e:	99 0b       	sbc	r25, r25
     380:	0e 94 dc 14 	call	0x29b8	; 0x29b8 <__floatsisf>
     384:	a7 01       	movw	r20, r14
     386:	96 01       	movw	r18, r12
     388:	0e 94 c8 13 	call	0x2790	; 0x2790 <__addsf3>
     38c:	93 94       	inc	r9
     38e:	29 2d       	mov	r18, r9
     390:	30 e0       	ldi	r19, 0x00	; 0
     392:	20 17       	cp	r18, r16
     394:	31 07       	cpc	r19, r17
     396:	c0 f2       	brcs	.-80     	; 0x348 <stof+0x2e>
     398:	07 c0       	rjmp	.+14     	; 0x3a8 <stof+0x8e>
     39a:	20 e0       	ldi	r18, 0x00	; 0
     39c:	30 e0       	ldi	r19, 0x00	; 0
     39e:	40 e2       	ldi	r20, 0x20	; 32
     3a0:	51 e4       	ldi	r21, 0x41	; 65
     3a2:	0e 94 39 14 	call	0x2872	; 0x2872 <__divsf3>
     3a6:	e8 01       	movw	r28, r16
     3a8:	8e 01       	movw	r16, r28
     3aa:	01 50       	subi	r16, 0x01	; 1
     3ac:	11 09       	sbc	r17, r1
     3ae:	cd 2b       	or	r28, r29
     3b0:	a1 f7       	brne	.-24     	; 0x39a <stof+0x80>
     3b2:	df 91       	pop	r29
     3b4:	cf 91       	pop	r28
     3b6:	1f 91       	pop	r17
     3b8:	0f 91       	pop	r16
     3ba:	ff 90       	pop	r15
     3bc:	ef 90       	pop	r14
     3be:	df 90       	pop	r13
     3c0:	cf 90       	pop	r12
     3c2:	bf 90       	pop	r11
     3c4:	af 90       	pop	r10
     3c6:	9f 90       	pop	r9
     3c8:	8f 90       	pop	r8
     3ca:	08 95       	ret

000003cc <Set_PinData>:
}

void Set_PinData()
{
     3cc:	0f 93       	push	r16
	if (PASS_BYTES_GUARD_NO > MAX_PASS_BYTES_NO)
	{
		return;
	}
	EEPROM_WriteBytes(EEPROM_CH, PASS_BLOCK, PASS_ADDR, (uint8_t*)gau8_PIN, PASS_BYTES_GUARD_NO);
     3ce:	05 e0       	ldi	r16, 0x05	; 5
     3d0:	20 e6       	ldi	r18, 0x60	; 96
     3d2:	30 e0       	ldi	r19, 0x00	; 0
     3d4:	40 e0       	ldi	r20, 0x00	; 0
     3d6:	60 ea       	ldi	r22, 0xA0	; 160
     3d8:	81 e0       	ldi	r24, 0x01	; 1
     3da:	0e 94 bf 0a 	call	0x157e	; 0x157e <EEPROM_WriteBytes>
}
     3de:	0f 91       	pop	r16
     3e0:	08 95       	ret

000003e2 <Get_PinData>:

void Get_PinData(uint8_t *data)
{
     3e2:	0f 93       	push	r16
	if (PASS_BYTES_GUARD_NO > MAX_PASS_BYTES_NO)
	{
		return;
	}
	EEPROM_ReadBytes(EEPROM_CH, PASS_BLOCK, PASS_ADDR, data, PASS_BYTES_GUARD_NO);
     3e4:	05 e0       	ldi	r16, 0x05	; 5
     3e6:	9c 01       	movw	r18, r24
     3e8:	40 e0       	ldi	r20, 0x00	; 0
     3ea:	60 ea       	ldi	r22, 0xA0	; 160
     3ec:	81 e0       	ldi	r24, 0x01	; 1
     3ee:	0e 94 8f 0a 	call	0x151e	; 0x151e <EEPROM_ReadBytes>
}
     3f2:	0f 91       	pop	r16
     3f4:	08 95       	ret

000003f6 <Check_WrittenAddresses>:

uint8_t Check_WrittenAddresses()
{
     3f6:	cf 93       	push	r28
     3f8:	df 93       	push	r29
     3fa:	1f 92       	push	r1
     3fc:	cd b7       	in	r28, 0x3d	; 61
     3fe:	de b7       	in	r29, 0x3e	; 62
	uint8_t count;
	EEPROM_Read(EEPROM_CH, AVALIABLE_ACCOUNTS_BLOCK, AVALIABLE_ACCOUNTS_ADDR, &count);
     400:	9e 01       	movw	r18, r28
     402:	2f 5f       	subi	r18, 0xFF	; 255
     404:	3f 4f       	sbci	r19, 0xFF	; 255
     406:	40 e0       	ldi	r20, 0x00	; 0
     408:	64 ea       	ldi	r22, 0xA4	; 164
     40a:	81 e0       	ldi	r24, 0x01	; 1
     40c:	0e 94 18 0a 	call	0x1430	; 0x1430 <EEPROM_Read>
	if(count == AVALIABLE_ACCOUNTS_NULL)
     410:	89 81       	ldd	r24, Y+1	; 0x01
     412:	8e 34       	cpi	r24, 0x4E	; 78
     414:	11 f4       	brne	.+4      	; 0x41a <__EEPROM_REGION_LENGTH__+0x1a>
	{
		return FALSE;
     416:	80 e0       	ldi	r24, 0x00	; 0
     418:	01 c0       	rjmp	.+2      	; 0x41c <__EEPROM_REGION_LENGTH__+0x1c>
	}
	return TRUE;
     41a:	81 e0       	ldi	r24, 0x01	; 1
	
}
     41c:	0f 90       	pop	r0
     41e:	df 91       	pop	r29
     420:	cf 91       	pop	r28
     422:	08 95       	ret

00000424 <Display_AccountsAvaliable>:

void Display_AccountsAvaliable(void)
{
	UART_TransmitString(UART_CH, STRING_ACCOUNTS_AVALIABLE);
     424:	6b e9       	ldi	r22, 0x9B	; 155
     426:	70 e0       	ldi	r23, 0x00	; 0
     428:	80 e0       	ldi	r24, 0x00	; 0
     42a:	0e 94 13 13 	call	0x2626	; 0x2626 <UART_TransmitString>
	UART_TransmitChar(UART_CH, BACKSPACE);
     42e:	68 e0       	ldi	r22, 0x08	; 8
     430:	80 e0       	ldi	r24, 0x00	; 0
     432:	0e 94 0e 13 	call	0x261c	; 0x261c <UART_TransmitChar>
	UART_TransmitString(UART_CH, au8_PANNumber);
     436:	68 e3       	ldi	r22, 0x38	; 56
     438:	74 e0       	ldi	r23, 0x04	; 4
     43a:	80 e0       	ldi	r24, 0x00	; 0
     43c:	0e 94 13 13 	call	0x2626	; 0x2626 <UART_TransmitString>
	UART_TransmitString(UART_CH, STRING_WELCOME_END);
     440:	60 eb       	ldi	r22, 0xB0	; 176
     442:	70 e0       	ldi	r23, 0x00	; 0
     444:	80 e0       	ldi	r24, 0x00	; 0
     446:	0e 94 13 13 	call	0x2626	; 0x2626 <UART_TransmitString>
     44a:	08 95       	ret

0000044c <Reset_WrittenAddresses>:
}

void Reset_WrittenAddresses()
{
	EEPROM_Write(EEPROM_CH, AVALIABLE_ACCOUNTS_BLOCK, AVALIABLE_ACCOUNTS_ADDR, AVALIABLE_ACCOUNTS_NULL);
     44c:	2e e4       	ldi	r18, 0x4E	; 78
     44e:	40 e0       	ldi	r20, 0x00	; 0
     450:	64 ea       	ldi	r22, 0xA4	; 164
     452:	81 e0       	ldi	r24, 0x01	; 1
     454:	0e 94 5e 0a 	call	0x14bc	; 0x14bc <EEPROM_Write>
     458:	08 95       	ret

0000045a <Set_WrittenAddresses>:
}

void Set_WrittenAddresses(uint8_t count)
{
     45a:	cf 93       	push	r28
     45c:	c8 2f       	mov	r28, r24
	EEPROM_Write(EEPROM_CH, AVALIABLE_ACCOUNTS_BLOCK, AVALIABLE_ACCOUNTS_ADDR, count);
     45e:	28 2f       	mov	r18, r24
     460:	40 e0       	ldi	r20, 0x00	; 0
     462:	64 ea       	ldi	r22, 0xA4	; 164
     464:	81 e0       	ldi	r24, 0x01	; 1
     466:	0e 94 5e 0a 	call	0x14bc	; 0x14bc <EEPROM_Write>
	intToStr(count, au8_PANNumber, 0);
     46a:	40 e0       	ldi	r20, 0x00	; 0
     46c:	50 e0       	ldi	r21, 0x00	; 0
     46e:	68 e3       	ldi	r22, 0x38	; 56
     470:	74 e0       	ldi	r23, 0x04	; 4
     472:	8c 2f       	mov	r24, r28
     474:	90 e0       	ldi	r25, 0x00	; 0
     476:	0e 94 ad 00 	call	0x15a	; 0x15a <intToStr>
	Display_AccountsAvaliable();
     47a:	0e 94 12 02 	call	0x424	; 0x424 <Display_AccountsAvaliable>
}
     47e:	cf 91       	pop	r28
     480:	08 95       	ret

00000482 <Get_WrittenAddresses>:

uint8_t Get_WrittenAddresses(void)
{
     482:	cf 93       	push	r28
     484:	df 93       	push	r29
     486:	1f 92       	push	r1
     488:	cd b7       	in	r28, 0x3d	; 61
     48a:	de b7       	in	r29, 0x3e	; 62
	uint8_t count = SPACE_BYTES_NO;
     48c:	81 e0       	ldi	r24, 0x01	; 1
     48e:	89 83       	std	Y+1, r24	; 0x01
	EEPROM_Read(EEPROM_CH, AVALIABLE_ACCOUNTS_BLOCK, AVALIABLE_ACCOUNTS_ADDR, &count);
     490:	9e 01       	movw	r18, r28
     492:	2f 5f       	subi	r18, 0xFF	; 255
     494:	3f 4f       	sbci	r19, 0xFF	; 255
     496:	40 e0       	ldi	r20, 0x00	; 0
     498:	64 ea       	ldi	r22, 0xA4	; 164
     49a:	0e 94 18 0a 	call	0x1430	; 0x1430 <EEPROM_Read>
	
	if (! Check_WrittenAddresses())
     49e:	0e 94 fb 01 	call	0x3f6	; 0x3f6 <Check_WrittenAddresses>
     4a2:	88 23       	and	r24, r24
     4a4:	59 f0       	breq	.+22     	; 0x4bc <Get_WrittenAddresses+0x3a>
	{
		return FALSE;
	}
	intToStr(count, au8_PANNumber, 0);
     4a6:	89 81       	ldd	r24, Y+1	; 0x01
     4a8:	40 e0       	ldi	r20, 0x00	; 0
     4aa:	50 e0       	ldi	r21, 0x00	; 0
     4ac:	68 e3       	ldi	r22, 0x38	; 56
     4ae:	74 e0       	ldi	r23, 0x04	; 4
     4b0:	90 e0       	ldi	r25, 0x00	; 0
     4b2:	0e 94 ad 00 	call	0x15a	; 0x15a <intToStr>
	Display_AccountsAvaliable();
     4b6:	0e 94 12 02 	call	0x424	; 0x424 <Display_AccountsAvaliable>
	
	return count;
     4ba:	89 81       	ldd	r24, Y+1	; 0x01
}
     4bc:	0f 90       	pop	r0
     4be:	df 91       	pop	r29
     4c0:	cf 91       	pop	r28
     4c2:	08 95       	ret

000004c4 <Check_PANExists>:

uint8_t Check_PANExists(uint8_t count)
{
     4c4:	ff 92       	push	r15
     4c6:	0f 93       	push	r16
     4c8:	1f 93       	push	r17
     4ca:	cf 93       	push	r28
     4cc:	df 93       	push	r29
     4ce:	f8 2e       	mov	r15, r24
	uint8_t u8_PANExists = FALSE;
	for (uint8_t u8_iterator = 0; u8_iterator < count; u8_iterator++)
     4d0:	10 e0       	ldi	r17, 0x00	; 0
     4d2:	2f c0       	rjmp	.+94     	; 0x532 <Check_PANExists+0x6e>
	{
		au8_PANAddress = (u8_iterator * TOTAL_FRAME_NO) + ACCOUNTS_ADDR;
     4d4:	91 2f       	mov	r25, r17
     4d6:	99 0f       	add	r25, r25
     4d8:	89 2f       	mov	r24, r25
     4da:	88 0f       	add	r24, r24
     4dc:	88 0f       	add	r24, r24
     4de:	88 0f       	add	r24, r24
     4e0:	89 1b       	sub	r24, r25
     4e2:	80 93 33 04 	sts	0x0433, r24	; 0x800433 <au8_PANAddress>
		EEPROM_ReadBytes(EEPROM_CH, ACCOUNTS_BLOCK,au8_PANAddress, au8_PANNumbers[u8_iterator], PAN_BYTES_GUARD_NO);
     4e6:	81 2f       	mov	r24, r17
     4e8:	90 e0       	ldi	r25, 0x00	; 0
     4ea:	ec 01       	movw	r28, r24
     4ec:	cc 0f       	add	r28, r28
     4ee:	dd 1f       	adc	r29, r29
     4f0:	88 0f       	add	r24, r24
     4f2:	99 1f       	adc	r25, r25
     4f4:	88 0f       	add	r24, r24
     4f6:	99 1f       	adc	r25, r25
     4f8:	88 0f       	add	r24, r24
     4fa:	99 1f       	adc	r25, r25
     4fc:	c8 0f       	add	r28, r24
     4fe:	d9 1f       	adc	r29, r25
     500:	ce 5b       	subi	r28, 0xBE	; 190
     502:	db 4f       	sbci	r29, 0xFB	; 251
     504:	40 91 33 04 	lds	r20, 0x0433	; 0x800433 <au8_PANAddress>
     508:	0a e0       	ldi	r16, 0x0A	; 10
     50a:	9e 01       	movw	r18, r28
     50c:	66 ea       	ldi	r22, 0xA6	; 166
     50e:	81 e0       	ldi	r24, 0x01	; 1
     510:	0e 94 8f 0a 	call	0x151e	; 0x151e <EEPROM_ReadBytes>
		if ((StringCompare(au8_PANNumber, au8_PANNumbers[u8_iterator])))
     514:	be 01       	movw	r22, r28
     516:	88 e3       	ldi	r24, 0x38	; 56
     518:	94 e0       	ldi	r25, 0x04	; 4
     51a:	0e 94 de 0f 	call	0x1fbc	; 0x1fbc <StringCompare>
     51e:	88 23       	and	r24, r24
     520:	39 f0       	breq	.+14     	; 0x530 <Check_PANExists+0x6c>
		{
			u8_PANExists = TRUE;
			UART_TransmitString(UART_CH, STRING_PAN_EXISTS);
     522:	6d ed       	ldi	r22, 0xDD	; 221
     524:	70 e0       	ldi	r23, 0x00	; 0
     526:	80 e0       	ldi	r24, 0x00	; 0
     528:	0e 94 13 13 	call	0x2626	; 0x2626 <UART_TransmitString>
	{
		au8_PANAddress = (u8_iterator * TOTAL_FRAME_NO) + ACCOUNTS_ADDR;
		EEPROM_ReadBytes(EEPROM_CH, ACCOUNTS_BLOCK,au8_PANAddress, au8_PANNumbers[u8_iterator], PAN_BYTES_GUARD_NO);
		if ((StringCompare(au8_PANNumber, au8_PANNumbers[u8_iterator])))
		{
			u8_PANExists = TRUE;
     52c:	81 e0       	ldi	r24, 0x01	; 1
			UART_TransmitString(UART_CH, STRING_PAN_EXISTS);
			break;
     52e:	04 c0       	rjmp	.+8      	; 0x538 <Check_PANExists+0x74>
}

uint8_t Check_PANExists(uint8_t count)
{
	uint8_t u8_PANExists = FALSE;
	for (uint8_t u8_iterator = 0; u8_iterator < count; u8_iterator++)
     530:	1f 5f       	subi	r17, 0xFF	; 255
     532:	1f 15       	cp	r17, r15
     534:	78 f2       	brcs	.-98     	; 0x4d4 <Check_PANExists+0x10>
	return count;
}

uint8_t Check_PANExists(uint8_t count)
{
	uint8_t u8_PANExists = FALSE;
     536:	80 e0       	ldi	r24, 0x00	; 0
			UART_TransmitString(UART_CH, STRING_PAN_EXISTS);
			break;
		}
	}
	return u8_PANExists;
}
     538:	df 91       	pop	r29
     53a:	cf 91       	pop	r28
     53c:	1f 91       	pop	r17
     53e:	0f 91       	pop	r16
     540:	ff 90       	pop	r15
     542:	08 95       	ret

00000544 <ADMIN_Authenticate>:
		else UART_TransmitString(UART_CH, STRING_INVALID_CHOICE);
	}
}
void ADMIN_Authenticate(void)
{
	Get_PinData(pin);
     544:	8c e2       	ldi	r24, 0x2C	; 44
     546:	94 e0       	ldi	r25, 0x04	; 4
     548:	0e 94 f1 01 	call	0x3e2	; 0x3e2 <Get_PinData>
	while (TRUE)
	{
		UART_TransmitString(UART_CH, STRING_ENTER_PIN);
     54c:	62 e0       	ldi	r22, 0x02	; 2
     54e:	71 e0       	ldi	r23, 0x01	; 1
     550:	80 e0       	ldi	r24, 0x00	; 0
     552:	0e 94 13 13 	call	0x2626	; 0x2626 <UART_TransmitString>
		UART_TransmitChar(UART_CH, BACKSPACE);
     556:	68 e0       	ldi	r22, 0x08	; 8
     558:	80 e0       	ldi	r24, 0x00	; 0
     55a:	0e 94 0e 13 	call	0x261c	; 0x261c <UART_TransmitChar>
		UART_ReceiveString(UART_CH, user_pin);
     55e:	62 e2       	ldi	r22, 0x22	; 34
     560:	74 e0       	ldi	r23, 0x04	; 4
     562:	80 e0       	ldi	r24, 0x00	; 0
     564:	0e 94 2f 13 	call	0x265e	; 0x265e <UART_ReceiveString>
		if ((StringCompare(pin, user_pin))) break;
     568:	62 e2       	ldi	r22, 0x22	; 34
     56a:	74 e0       	ldi	r23, 0x04	; 4
     56c:	8c e2       	ldi	r24, 0x2C	; 44
     56e:	94 e0       	ldi	r25, 0x04	; 4
     570:	0e 94 de 0f 	call	0x1fbc	; 0x1fbc <StringCompare>
     574:	81 11       	cpse	r24, r1
     576:	05 c0       	rjmp	.+10     	; 0x582 <ADMIN_Authenticate+0x3e>
		UART_TransmitString(UART_CH, STRING_INVALID_PIN);
     578:	6a e1       	ldi	r22, 0x1A	; 26
     57a:	71 e0       	ldi	r23, 0x01	; 1
     57c:	0e 94 13 13 	call	0x2626	; 0x2626 <UART_TransmitString>
	}
     580:	e5 cf       	rjmp	.-54     	; 0x54c <ADMIN_Authenticate+0x8>
     582:	08 95       	ret

00000584 <ADMIN_Interface>:
}

void ADMIN_Interface(ptr_uint8_t pu8_choice)
{
     584:	cf 93       	push	r28
     586:	df 93       	push	r29
     588:	ec 01       	movw	r28, r24
	UART_TransmitString(UART_CH, STRING_WELCOME_START);
     58a:	6a e3       	ldi	r22, 0x3A	; 58
     58c:	71 e0       	ldi	r23, 0x01	; 1
     58e:	80 e0       	ldi	r24, 0x00	; 0
     590:	0e 94 13 13 	call	0x2626	; 0x2626 <UART_TransmitString>
	UART_TransmitString(UART_CH, STRING_MENU_SET_CUSTOMER_DATA);
     594:	67 e6       	ldi	r22, 0x67	; 103
     596:	71 e0       	ldi	r23, 0x01	; 1
     598:	80 e0       	ldi	r24, 0x00	; 0
     59a:	0e 94 13 13 	call	0x2626	; 0x2626 <UART_TransmitString>
	UART_TransmitString(UART_CH, STRING_MENU_GET_CUSTOMER_DATA);
     59e:	6c e7       	ldi	r22, 0x7C	; 124
     5a0:	71 e0       	ldi	r23, 0x01	; 1
     5a2:	80 e0       	ldi	r24, 0x00	; 0
     5a4:	0e 94 13 13 	call	0x2626	; 0x2626 <UART_TransmitString>
	UART_TransmitString(UART_CH, STRING_MENU_SET_MAX_ACCOUNT);
     5a8:	61 e9       	ldi	r22, 0x91	; 145
     5aa:	71 e0       	ldi	r23, 0x01	; 1
     5ac:	80 e0       	ldi	r24, 0x00	; 0
     5ae:	0e 94 13 13 	call	0x2626	; 0x2626 <UART_TransmitString>
	UART_TransmitString(UART_CH, STRING_MENU_GET_MAX_ACCOUNT);
     5b2:	60 eb       	ldi	r22, 0xB0	; 176
     5b4:	71 e0       	ldi	r23, 0x01	; 1
     5b6:	80 e0       	ldi	r24, 0x00	; 0
     5b8:	0e 94 13 13 	call	0x2626	; 0x2626 <UART_TransmitString>
	UART_TransmitString(UART_CH, STRING_MENU_EXIT);
     5bc:	6f ec       	ldi	r22, 0xCF	; 207
     5be:	71 e0       	ldi	r23, 0x01	; 1
     5c0:	80 e0       	ldi	r24, 0x00	; 0
     5c2:	0e 94 13 13 	call	0x2626	; 0x2626 <UART_TransmitString>
	UART_TransmitString(UART_CH, STRING_WELCOME_END);
     5c6:	60 eb       	ldi	r22, 0xB0	; 176
     5c8:	70 e0       	ldi	r23, 0x00	; 0
     5ca:	80 e0       	ldi	r24, 0x00	; 0
     5cc:	0e 94 13 13 	call	0x2626	; 0x2626 <UART_TransmitString>
	UART_TransmitString(UART_CH, STRING_MENU_CHOICE);
     5d0:	67 ed       	ldi	r22, 0xD7	; 215
     5d2:	71 e0       	ldi	r23, 0x01	; 1
     5d4:	80 e0       	ldi	r24, 0x00	; 0
     5d6:	0e 94 13 13 	call	0x2626	; 0x2626 <UART_TransmitString>
	UART_TransmitChar(UART_CH, BACKSPACE);
     5da:	68 e0       	ldi	r22, 0x08	; 8
     5dc:	80 e0       	ldi	r24, 0x00	; 0
     5de:	0e 94 0e 13 	call	0x261c	; 0x261c <UART_TransmitChar>
	UART_ReceiveChar(UART_CH, pu8_choice);
     5e2:	be 01       	movw	r22, r28
     5e4:	80 e0       	ldi	r24, 0x00	; 0
     5e6:	0e 94 28 13 	call	0x2650	; 0x2650 <UART_ReceiveChar>
	UART_TransmitChar(UART_CH, NEW_LINE);
     5ea:	6d e0       	ldi	r22, 0x0D	; 13
     5ec:	80 e0       	ldi	r24, 0x00	; 0
     5ee:	0e 94 0e 13 	call	0x261c	; 0x261c <UART_TransmitChar>
		UART_TransmitChar(UART_CH, BACKSPACE);
		UART_ReceiveChar(UART_CH, pu8_choice);
		UART_TransmitChar(UART_CH, NEW_LINE);
		if ((*pu8_choice < OPTION_EXIT) && (*pu8_choice > OPTION_SET_CUSTOMER_DATA)) break;
	}
}
     5f2:	df 91       	pop	r29
     5f4:	cf 91       	pop	r28
     5f6:	08 95       	ret

000005f8 <ADMIN_GetAccount>:
void ADMIN_GetAccount(void)
{
     5f8:	ff 92       	push	r15
     5fa:	0f 93       	push	r16
     5fc:	1f 93       	push	r17
     5fe:	cf 93       	push	r28
     600:	df 93       	push	r29
     602:	00 d0       	rcall	.+0      	; 0x604 <ADMIN_GetAccount+0xc>
     604:	00 d0       	rcall	.+0      	; 0x606 <ADMIN_GetAccount+0xe>
     606:	cd b7       	in	r28, 0x3d	; 61
     608:	de b7       	in	r29, 0x3e	; 62
	uint8_t i = 0;
	f32_t f;
	uint8_t count = Get_WrittenAddresses();
     60a:	0e 94 41 02 	call	0x482	; 0x482 <Get_WrittenAddresses>
     60e:	f8 2e       	mov	r15, r24
	if (! Check_WrittenAddresses())
     610:	0e 94 fb 01 	call	0x3f6	; 0x3f6 <Check_WrittenAddresses>
     614:	81 11       	cpse	r24, r1
     616:	52 c0       	rjmp	.+164    	; 0x6bc <ADMIN_GetAccount+0xc4>
	{
		UART_TransmitString(UART_CH, STRING_MEMORY_EMPTY);
     618:	6b ee       	ldi	r22, 0xEB	; 235
     61a:	71 e0       	ldi	r23, 0x01	; 1
     61c:	0e 94 13 13 	call	0x2626	; 0x2626 <UART_TransmitString>
     620:	56 c0       	rjmp	.+172    	; 0x6ce <ADMIN_GetAccount+0xd6>
		return;
	}
	while (i < count)
	{
		au8_PANAddress = (i* TOTAL_FRAME_NO) + ACCOUNTS_ADDR;
     622:	91 2f       	mov	r25, r17
     624:	99 0f       	add	r25, r25
     626:	89 2f       	mov	r24, r25
     628:	88 0f       	add	r24, r24
     62a:	88 0f       	add	r24, r24
     62c:	88 0f       	add	r24, r24
     62e:	89 1b       	sub	r24, r25
     630:	80 93 33 04 	sts	0x0433, r24	; 0x800433 <au8_PANAddress>
		au8_SPACEAddress = au8_PANAddress + PAN_BYTES_NO;
     634:	80 91 33 04 	lds	r24, 0x0433	; 0x800433 <au8_PANAddress>
     638:	87 5f       	subi	r24, 0xF7	; 247
     63a:	80 93 32 04 	sts	0x0432, r24	; 0x800432 <au8_SPACEAddress>
		au8_AccountBalanceAddress = au8_SPACEAddress + SPACE_BYTES_NO;
     63e:	80 91 32 04 	lds	r24, 0x0432	; 0x800432 <au8_SPACEAddress>
     642:	8f 5f       	subi	r24, 0xFF	; 255
     644:	80 93 31 04 	sts	0x0431, r24	; 0x800431 <au8_AccountBalanceAddress>
		EEPROM_ReadBytes(EEPROM_CH, ACCOUNTS_BLOCK,au8_PANAddress, au8_PANNumber, PAN_BYTES_NO);
     648:	40 91 33 04 	lds	r20, 0x0433	; 0x800433 <au8_PANAddress>
     64c:	09 e0       	ldi	r16, 0x09	; 9
     64e:	28 e3       	ldi	r18, 0x38	; 56
     650:	34 e0       	ldi	r19, 0x04	; 4
     652:	66 ea       	ldi	r22, 0xA6	; 166
     654:	81 e0       	ldi	r24, 0x01	; 1
     656:	0e 94 8f 0a 	call	0x151e	; 0x151e <EEPROM_ReadBytes>
		UART_TransmitString(UART_CH, STRING_PAN);
     65a:	64 e2       	ldi	r22, 0x24	; 36
     65c:	72 e0       	ldi	r23, 0x02	; 2
     65e:	80 e0       	ldi	r24, 0x00	; 0
     660:	0e 94 13 13 	call	0x2626	; 0x2626 <UART_TransmitString>
		UART_TransmitChar(UART_CH, BACKSPACE);
     664:	68 e0       	ldi	r22, 0x08	; 8
     666:	80 e0       	ldi	r24, 0x00	; 0
     668:	0e 94 0e 13 	call	0x261c	; 0x261c <UART_TransmitChar>
		UART_TransmitString(UART_CH, au8_PANNumber);
     66c:	68 e3       	ldi	r22, 0x38	; 56
     66e:	74 e0       	ldi	r23, 0x04	; 4
     670:	80 e0       	ldi	r24, 0x00	; 0
     672:	0e 94 13 13 	call	0x2626	; 0x2626 <UART_TransmitString>
		EEPROM_ReadBytes(EEPROM_CH, ACCOUNTS_BLOCK, au8_AccountBalanceAddress, (uint8_t *) &f, MAX_ACCOUNT_BYTES_NO);
     676:	40 91 31 04 	lds	r20, 0x0431	; 0x800431 <au8_AccountBalanceAddress>
     67a:	04 e0       	ldi	r16, 0x04	; 4
     67c:	9e 01       	movw	r18, r28
     67e:	2f 5f       	subi	r18, 0xFF	; 255
     680:	3f 4f       	sbci	r19, 0xFF	; 255
     682:	66 ea       	ldi	r22, 0xA6	; 166
     684:	81 e0       	ldi	r24, 0x01	; 1
     686:	0e 94 8f 0a 	call	0x151e	; 0x151e <EEPROM_ReadBytes>
		UART_TransmitString(UART_CH, STRING_ACCOUNT);
     68a:	6e e6       	ldi	r22, 0x6E	; 110
     68c:	72 e0       	ldi	r23, 0x02	; 2
     68e:	80 e0       	ldi	r24, 0x00	; 0
     690:	0e 94 13 13 	call	0x2626	; 0x2626 <UART_TransmitString>
		UART_TransmitChar(UART_CH, BACKSPACE);
     694:	68 e0       	ldi	r22, 0x08	; 8
     696:	80 e0       	ldi	r24, 0x00	; 0
     698:	0e 94 0e 13 	call	0x261c	; 0x261c <UART_TransmitChar>
		ftos(f, au8_AccountBalance, FLOATING_POINT);
     69c:	69 81       	ldd	r22, Y+1	; 0x01
     69e:	7a 81       	ldd	r23, Y+2	; 0x02
     6a0:	8b 81       	ldd	r24, Y+3	; 0x03
     6a2:	9c 81       	ldd	r25, Y+4	; 0x04
     6a4:	22 e0       	ldi	r18, 0x02	; 2
     6a6:	44 e3       	ldi	r20, 0x34	; 52
     6a8:	54 e0       	ldi	r21, 0x04	; 4
     6aa:	0e 94 01 01 	call	0x202	; 0x202 <ftos>
		UART_TransmitString(UART_CH, au8_AccountBalance);
     6ae:	64 e3       	ldi	r22, 0x34	; 52
     6b0:	74 e0       	ldi	r23, 0x04	; 4
     6b2:	80 e0       	ldi	r24, 0x00	; 0
     6b4:	0e 94 13 13 	call	0x2626	; 0x2626 <UART_TransmitString>
		i++;
     6b8:	1f 5f       	subi	r17, 0xFF	; 255
     6ba:	01 c0       	rjmp	.+2      	; 0x6be <ADMIN_GetAccount+0xc6>
     6bc:	10 e0       	ldi	r17, 0x00	; 0
	if (! Check_WrittenAddresses())
	{
		UART_TransmitString(UART_CH, STRING_MEMORY_EMPTY);
		return;
	}
	while (i < count)
     6be:	1f 15       	cp	r17, r15
     6c0:	08 f4       	brcc	.+2      	; 0x6c4 <ADMIN_GetAccount+0xcc>
     6c2:	af cf       	rjmp	.-162    	; 0x622 <ADMIN_GetAccount+0x2a>
		UART_TransmitChar(UART_CH, BACKSPACE);
		ftos(f, au8_AccountBalance, FLOATING_POINT);
		UART_TransmitString(UART_CH, au8_AccountBalance);
		i++;
	}
	UART_TransmitString(UART_CH, STRING_WELCOME_END);
     6c4:	60 eb       	ldi	r22, 0xB0	; 176
     6c6:	70 e0       	ldi	r23, 0x00	; 0
     6c8:	80 e0       	ldi	r24, 0x00	; 0
     6ca:	0e 94 13 13 	call	0x2626	; 0x2626 <UART_TransmitString>
}
     6ce:	0f 90       	pop	r0
     6d0:	0f 90       	pop	r0
     6d2:	0f 90       	pop	r0
     6d4:	0f 90       	pop	r0
     6d6:	df 91       	pop	r29
     6d8:	cf 91       	pop	r28
     6da:	1f 91       	pop	r17
     6dc:	0f 91       	pop	r16
     6de:	ff 90       	pop	r15
     6e0:	08 95       	ret

000006e2 <ADMIN_SetAccount>:



void ADMIN_SetAccount(void)
{
     6e2:	0f 93       	push	r16
     6e4:	1f 93       	push	r17
     6e6:	cf 93       	push	r28
     6e8:	df 93       	push	r29
     6ea:	00 d0       	rcall	.+0      	; 0x6ec <ADMIN_SetAccount+0xa>
     6ec:	00 d0       	rcall	.+0      	; 0x6ee <ADMIN_SetAccount+0xc>
     6ee:	cd b7       	in	r28, 0x3d	; 61
     6f0:	de b7       	in	r29, 0x3e	; 62
	f32_t ufloat_AccountBalance;
	uint8_t count = Get_WrittenAddresses();
     6f2:	0e 94 41 02 	call	0x482	; 0x482 <Get_WrittenAddresses>
     6f6:	18 2f       	mov	r17, r24
	uint8_t temp = count;
	if (count == MAX_ACCOUNT_NO)
     6f8:	88 30       	cpi	r24, 0x08	; 8
     6fa:	31 f4       	brne	.+12     	; 0x708 <ADMIN_SetAccount+0x26>
	{
		UART_TransmitString(UART_CH, STRING_MEMORY_FULL);
     6fc:	6f ef       	ldi	r22, 0xFF	; 255
     6fe:	71 e0       	ldi	r23, 0x01	; 1
     700:	80 e0       	ldi	r24, 0x00	; 0
     702:	0e 94 13 13 	call	0x2626	; 0x2626 <UART_TransmitString>
     706:	64 c0       	rjmp	.+200    	; 0x7d0 <ADMIN_SetAccount+0xee>
		return;
	}
	while (TRUE)
	{
		UART_TransmitString(UART_CH, STRING_ENTER_PAN);
     708:	62 e1       	ldi	r22, 0x12	; 18
     70a:	72 e0       	ldi	r23, 0x02	; 2
     70c:	80 e0       	ldi	r24, 0x00	; 0
     70e:	0e 94 13 13 	call	0x2626	; 0x2626 <UART_TransmitString>
		UART_TransmitChar(UART_CH, BACKSPACE);
     712:	68 e0       	ldi	r22, 0x08	; 8
     714:	80 e0       	ldi	r24, 0x00	; 0
     716:	0e 94 0e 13 	call	0x261c	; 0x261c <UART_TransmitChar>
		UART_ReceiveString(UART_CH, au8_PANNumber);
     71a:	68 e3       	ldi	r22, 0x38	; 56
     71c:	74 e0       	ldi	r23, 0x04	; 4
     71e:	80 e0       	ldi	r24, 0x00	; 0
     720:	0e 94 2f 13 	call	0x265e	; 0x265e <UART_ReceiveString>
		if (Validate_PAN() != TRUE)
     724:	0e 94 6c 01 	call	0x2d8	; 0x2d8 <Validate_PAN>
     728:	81 30       	cpi	r24, 0x01	; 1
     72a:	31 f0       	breq	.+12     	; 0x738 <ADMIN_SetAccount+0x56>
		{
			UART_TransmitString(UART_CH, STRING_INVALID_PAN);
     72c:	6a e2       	ldi	r22, 0x2A	; 42
     72e:	72 e0       	ldi	r23, 0x02	; 2
     730:	80 e0       	ldi	r24, 0x00	; 0
     732:	0e 94 13 13 	call	0x2626	; 0x2626 <UART_TransmitString>
			continue;
     736:	e8 cf       	rjmp	.-48     	; 0x708 <ADMIN_SetAccount+0x26>
		}
		else if (Check_PANExists(temp)) continue;
     738:	81 2f       	mov	r24, r17
     73a:	0e 94 62 02 	call	0x4c4	; 0x4c4 <Check_PANExists>
     73e:	81 11       	cpse	r24, r1
     740:	e3 cf       	rjmp	.-58     	; 0x708 <ADMIN_SetAccount+0x26>
		else break;
	}
	au8_PANAddress = (count * TOTAL_FRAME_NO) + ACCOUNTS_ADDR;
     742:	91 2f       	mov	r25, r17
     744:	99 0f       	add	r25, r25
     746:	89 2f       	mov	r24, r25
     748:	88 0f       	add	r24, r24
     74a:	88 0f       	add	r24, r24
     74c:	88 0f       	add	r24, r24
     74e:	89 1b       	sub	r24, r25
     750:	80 93 33 04 	sts	0x0433, r24	; 0x800433 <au8_PANAddress>
	au8_SPACEAddress = au8_PANAddress + PAN_BYTES_NO;
     754:	80 91 33 04 	lds	r24, 0x0433	; 0x800433 <au8_PANAddress>
     758:	87 5f       	subi	r24, 0xF7	; 247
     75a:	80 93 32 04 	sts	0x0432, r24	; 0x800432 <au8_SPACEAddress>
	au8_AccountBalanceAddress = au8_SPACEAddress + SPACE_BYTES_NO;
     75e:	80 91 32 04 	lds	r24, 0x0432	; 0x800432 <au8_SPACEAddress>
     762:	8f 5f       	subi	r24, 0xFF	; 255
     764:	80 93 31 04 	sts	0x0431, r24	; 0x800431 <au8_AccountBalanceAddress>
	EEPROM_WriteBytes(EEPROM_CH, ACCOUNTS_BLOCK, au8_PANAddress, au8_PANNumber, PAN_BYTES_NO);
     768:	40 91 33 04 	lds	r20, 0x0433	; 0x800433 <au8_PANAddress>
     76c:	09 e0       	ldi	r16, 0x09	; 9
     76e:	28 e3       	ldi	r18, 0x38	; 56
     770:	34 e0       	ldi	r19, 0x04	; 4
     772:	66 ea       	ldi	r22, 0xA6	; 166
     774:	81 e0       	ldi	r24, 0x01	; 1
     776:	0e 94 bf 0a 	call	0x157e	; 0x157e <EEPROM_WriteBytes>
	EEPROM_Write(EEPROM_CH, ACCOUNTS_BLOCK,au8_SPACEAddress, END_OF_STRING);
     77a:	40 91 32 04 	lds	r20, 0x0432	; 0x800432 <au8_SPACEAddress>
     77e:	20 e0       	ldi	r18, 0x00	; 0
     780:	66 ea       	ldi	r22, 0xA6	; 166
     782:	81 e0       	ldi	r24, 0x01	; 1
     784:	0e 94 5e 0a 	call	0x14bc	; 0x14bc <EEPROM_Write>
	UART_TransmitString(UART_CH, STRING_ENTER_ACCOUNT);
     788:	6c e5       	ldi	r22, 0x5C	; 92
     78a:	72 e0       	ldi	r23, 0x02	; 2
     78c:	80 e0       	ldi	r24, 0x00	; 0
     78e:	0e 94 13 13 	call	0x2626	; 0x2626 <UART_TransmitString>
	UART_TransmitChar(UART_CH, BACKSPACE);
     792:	68 e0       	ldi	r22, 0x08	; 8
     794:	80 e0       	ldi	r24, 0x00	; 0
     796:	0e 94 0e 13 	call	0x261c	; 0x261c <UART_TransmitChar>
	UART_ReceiveString(UART_CH, au8_AccountBalance);
     79a:	64 e3       	ldi	r22, 0x34	; 52
     79c:	74 e0       	ldi	r23, 0x04	; 4
     79e:	80 e0       	ldi	r24, 0x00	; 0
     7a0:	0e 94 2f 13 	call	0x265e	; 0x265e <UART_ReceiveString>
	ufloat_AccountBalance = stof(au8_AccountBalance);
     7a4:	84 e3       	ldi	r24, 0x34	; 52
     7a6:	94 e0       	ldi	r25, 0x04	; 4
     7a8:	0e 94 8d 01 	call	0x31a	; 0x31a <stof>
     7ac:	69 83       	std	Y+1, r22	; 0x01
     7ae:	7a 83       	std	Y+2, r23	; 0x02
     7b0:	8b 83       	std	Y+3, r24	; 0x03
     7b2:	9c 83       	std	Y+4, r25	; 0x04
	EEPROM_WriteBytes(EEPROM_CH, ACCOUNTS_BLOCK, au8_AccountBalanceAddress, (uint8_t *)&ufloat_AccountBalance, MAX_ACCOUNT_BYTES_NO);
     7b4:	40 91 31 04 	lds	r20, 0x0431	; 0x800431 <au8_AccountBalanceAddress>
     7b8:	04 e0       	ldi	r16, 0x04	; 4
     7ba:	9e 01       	movw	r18, r28
     7bc:	2f 5f       	subi	r18, 0xFF	; 255
     7be:	3f 4f       	sbci	r19, 0xFF	; 255
     7c0:	66 ea       	ldi	r22, 0xA6	; 166
     7c2:	81 e0       	ldi	r24, 0x01	; 1
     7c4:	0e 94 bf 0a 	call	0x157e	; 0x157e <EEPROM_WriteBytes>
	++count;
	Set_WrittenAddresses(count);
     7c8:	81 e0       	ldi	r24, 0x01	; 1
     7ca:	81 0f       	add	r24, r17
     7cc:	0e 94 2d 02 	call	0x45a	; 0x45a <Set_WrittenAddresses>
}
     7d0:	0f 90       	pop	r0
     7d2:	0f 90       	pop	r0
     7d4:	0f 90       	pop	r0
     7d6:	0f 90       	pop	r0
     7d8:	df 91       	pop	r29
     7da:	cf 91       	pop	r28
     7dc:	1f 91       	pop	r17
     7de:	0f 91       	pop	r16
     7e0:	08 95       	ret

000007e2 <ADMIN_SetMaxBalance>:
void ADMIN_SetMaxBalance(void)
{
     7e2:	0f 93       	push	r16
     7e4:	cf 93       	push	r28
     7e6:	df 93       	push	r29
     7e8:	00 d0       	rcall	.+0      	; 0x7ea <ADMIN_SetMaxBalance+0x8>
     7ea:	00 d0       	rcall	.+0      	; 0x7ec <ADMIN_SetMaxBalance+0xa>
     7ec:	cd b7       	in	r28, 0x3d	; 61
     7ee:	de b7       	in	r29, 0x3e	; 62
	f32_t ufloat_MaximumAccount = 0.0;
     7f0:	19 82       	std	Y+1, r1	; 0x01
     7f2:	1a 82       	std	Y+2, r1	; 0x02
     7f4:	1b 82       	std	Y+3, r1	; 0x03
     7f6:	1c 82       	std	Y+4, r1	; 0x04
	UART_TransmitString(UART_CH, STRING_MAX_ACCOUNT);
     7f8:	68 e7       	ldi	r22, 0x78	; 120
     7fa:	72 e0       	ldi	r23, 0x02	; 2
     7fc:	80 e0       	ldi	r24, 0x00	; 0
     7fe:	0e 94 13 13 	call	0x2626	; 0x2626 <UART_TransmitString>
	UART_TransmitChar(UART_CH, BACKSPACE);
     802:	68 e0       	ldi	r22, 0x08	; 8
     804:	80 e0       	ldi	r24, 0x00	; 0
     806:	0e 94 0e 13 	call	0x261c	; 0x261c <UART_TransmitChar>
	UART_ReceiveString(UART_CH, au8_AccountBalance);
     80a:	64 e3       	ldi	r22, 0x34	; 52
     80c:	74 e0       	ldi	r23, 0x04	; 4
     80e:	80 e0       	ldi	r24, 0x00	; 0
     810:	0e 94 2f 13 	call	0x265e	; 0x265e <UART_ReceiveString>
	ufloat_MaximumAccount = stof(au8_AccountBalance);
     814:	84 e3       	ldi	r24, 0x34	; 52
     816:	94 e0       	ldi	r25, 0x04	; 4
     818:	0e 94 8d 01 	call	0x31a	; 0x31a <stof>
     81c:	69 83       	std	Y+1, r22	; 0x01
     81e:	7a 83       	std	Y+2, r23	; 0x02
     820:	8b 83       	std	Y+3, r24	; 0x03
     822:	9c 83       	std	Y+4, r25	; 0x04
	if (ufloat_MaximumAccount < MAX_BALANCE_NO)
     824:	20 e0       	ldi	r18, 0x00	; 0
     826:	3c e3       	ldi	r19, 0x3C	; 60
     828:	4c e1       	ldi	r20, 0x1C	; 28
     82a:	56 e4       	ldi	r21, 0x46	; 70
     82c:	0e 94 34 14 	call	0x2868	; 0x2868 <__cmpsf2>
     830:	88 23       	and	r24, r24
     832:	54 f4       	brge	.+20     	; 0x848 <__DATA_REGION_LENGTH__+0x48>
	{
		EEPROM_WriteBytes(EEPROM_CH, MAX_ACCOUNT_BLOCK,MAX_ACCOUNT_ADDR, (uint8_t *)&ufloat_MaximumAccount, MAX_ACCOUNT_BYTES_NO);
     834:	04 e0       	ldi	r16, 0x04	; 4
     836:	9e 01       	movw	r18, r28
     838:	2f 5f       	subi	r18, 0xFF	; 255
     83a:	3f 4f       	sbci	r19, 0xFF	; 255
     83c:	40 e0       	ldi	r20, 0x00	; 0
     83e:	62 ea       	ldi	r22, 0xA2	; 162
     840:	81 e0       	ldi	r24, 0x01	; 1
     842:	0e 94 bf 0a 	call	0x157e	; 0x157e <EEPROM_WriteBytes>
     846:	05 c0       	rjmp	.+10     	; 0x852 <__DATA_REGION_LENGTH__+0x52>
	}
	else
	{
		UART_TransmitString(UART_CH, STRING_INVALID_MAX_ACCOUNT);
     848:	63 e9       	ldi	r22, 0x93	; 147
     84a:	72 e0       	ldi	r23, 0x02	; 2
     84c:	80 e0       	ldi	r24, 0x00	; 0
     84e:	0e 94 13 13 	call	0x2626	; 0x2626 <UART_TransmitString>
	}
	
}
     852:	0f 90       	pop	r0
     854:	0f 90       	pop	r0
     856:	0f 90       	pop	r0
     858:	0f 90       	pop	r0
     85a:	df 91       	pop	r29
     85c:	cf 91       	pop	r28
     85e:	0f 91       	pop	r16
     860:	08 95       	ret

00000862 <ADMIN_GetMaxBalance>:

void ADMIN_GetMaxBalance(void)
{
     862:	0f 93       	push	r16
     864:	cf 93       	push	r28
     866:	df 93       	push	r29
     868:	00 d0       	rcall	.+0      	; 0x86a <ADMIN_GetMaxBalance+0x8>
     86a:	00 d0       	rcall	.+0      	; 0x86c <ADMIN_GetMaxBalance+0xa>
     86c:	cd b7       	in	r28, 0x3d	; 61
     86e:	de b7       	in	r29, 0x3e	; 62
	f32_t f;
	EEPROM_ReadBytes(EEPROM_CH, MAX_ACCOUNT_BLOCK, MAX_ACCOUNT_ADDR, (uint8_t *) &f, MAX_ACCOUNT_BYTES_NO);
     870:	04 e0       	ldi	r16, 0x04	; 4
     872:	9e 01       	movw	r18, r28
     874:	2f 5f       	subi	r18, 0xFF	; 255
     876:	3f 4f       	sbci	r19, 0xFF	; 255
     878:	40 e0       	ldi	r20, 0x00	; 0
     87a:	62 ea       	ldi	r22, 0xA2	; 162
     87c:	81 e0       	ldi	r24, 0x01	; 1
     87e:	0e 94 8f 0a 	call	0x151e	; 0x151e <EEPROM_ReadBytes>
	ftos(f, au8_AccountBalance, FLOATING_POINT);
     882:	69 81       	ldd	r22, Y+1	; 0x01
     884:	7a 81       	ldd	r23, Y+2	; 0x02
     886:	8b 81       	ldd	r24, Y+3	; 0x03
     888:	9c 81       	ldd	r25, Y+4	; 0x04
     88a:	22 e0       	ldi	r18, 0x02	; 2
     88c:	44 e3       	ldi	r20, 0x34	; 52
     88e:	54 e0       	ldi	r21, 0x04	; 4
     890:	0e 94 01 01 	call	0x202	; 0x202 <ftos>
	UART_TransmitString(UART_CH, au8_AccountBalance);
     894:	64 e3       	ldi	r22, 0x34	; 52
     896:	74 e0       	ldi	r23, 0x04	; 4
     898:	80 e0       	ldi	r24, 0x00	; 0
     89a:	0e 94 13 13 	call	0x2626	; 0x2626 <UART_TransmitString>
	UART_TransmitString(UART_CH, STRING_WELCOME_END);
     89e:	60 eb       	ldi	r22, 0xB0	; 176
     8a0:	70 e0       	ldi	r23, 0x00	; 0
     8a2:	80 e0       	ldi	r24, 0x00	; 0
     8a4:	0e 94 13 13 	call	0x2626	; 0x2626 <UART_TransmitString>
}
     8a8:	0f 90       	pop	r0
     8aa:	0f 90       	pop	r0
     8ac:	0f 90       	pop	r0
     8ae:	0f 90       	pop	r0
     8b0:	df 91       	pop	r29
     8b2:	cf 91       	pop	r28
     8b4:	0f 91       	pop	r16
     8b6:	08 95       	ret

000008b8 <ADMIN_Mode>:
/******************************************************************************
*                         APIS IMPLEMENTATION											*
*******************************************************************************/

void ADMIN_Mode(void)
{
     8b8:	cf 93       	push	r28
     8ba:	df 93       	push	r29
     8bc:	1f 92       	push	r1
     8be:	cd b7       	in	r28, 0x3d	; 61
     8c0:	de b7       	in	r29, 0x3e	; 62
	uint8_t u8_choice;
	Reset_WrittenAddresses();
     8c2:	0e 94 26 02 	call	0x44c	; 0x44c <Reset_WrittenAddresses>
	Set_PinData();
     8c6:	0e 94 e6 01 	call	0x3cc	; 0x3cc <Set_PinData>
	ADMIN_Authenticate();
     8ca:	0e 94 a2 02 	call	0x544	; 0x544 <ADMIN_Authenticate>
	while(1)
	{
		ADMIN_Interface(&u8_choice);
     8ce:	ce 01       	movw	r24, r28
     8d0:	01 96       	adiw	r24, 0x01	; 1
     8d2:	0e 94 c2 02 	call	0x584	; 0x584 <ADMIN_Interface>
		if (u8_choice == OPTION_EXIT)
     8d6:	89 81       	ldd	r24, Y+1	; 0x01
     8d8:	85 33       	cpi	r24, 0x35	; 53
     8da:	31 f4       	brne	.+12     	; 0x8e8 <ADMIN_Mode+0x30>
		{
			UART_TransmitString(UART_CH, STRING_EXIT);
     8dc:	6d ea       	ldi	r22, 0xAD	; 173
     8de:	72 e0       	ldi	r23, 0x02	; 2
     8e0:	80 e0       	ldi	r24, 0x00	; 0
     8e2:	0e 94 13 13 	call	0x2626	; 0x2626 <UART_TransmitString>
		else if (u8_choice == OPTION_GET_CUSTOMER_DATA) ADMIN_GetAccount();
		else if (u8_choice == OPTION_SET_MAX_ACCOUNT) ADMIN_SetMaxBalance();
		else if (u8_choice == OPTION_GET_MAX_ACCOUNT) ADMIN_GetMaxBalance();
		else UART_TransmitString(UART_CH, STRING_INVALID_CHOICE);
	}
}
     8e6:	1a c0       	rjmp	.+52     	; 0x91c <ADMIN_Mode+0x64>
		if (u8_choice == OPTION_EXIT)
		{
			UART_TransmitString(UART_CH, STRING_EXIT);
			break;
		}
		else if (u8_choice == OPTION_SET_CUSTOMER_DATA) ADMIN_SetAccount();
     8e8:	81 33       	cpi	r24, 0x31	; 49
     8ea:	19 f4       	brne	.+6      	; 0x8f2 <ADMIN_Mode+0x3a>
     8ec:	0e 94 71 03 	call	0x6e2	; 0x6e2 <ADMIN_SetAccount>
     8f0:	ee cf       	rjmp	.-36     	; 0x8ce <ADMIN_Mode+0x16>
		else if (u8_choice == OPTION_GET_CUSTOMER_DATA) ADMIN_GetAccount();
     8f2:	82 33       	cpi	r24, 0x32	; 50
     8f4:	19 f4       	brne	.+6      	; 0x8fc <ADMIN_Mode+0x44>
     8f6:	0e 94 fc 02 	call	0x5f8	; 0x5f8 <ADMIN_GetAccount>
     8fa:	e9 cf       	rjmp	.-46     	; 0x8ce <ADMIN_Mode+0x16>
		else if (u8_choice == OPTION_SET_MAX_ACCOUNT) ADMIN_SetMaxBalance();
     8fc:	83 33       	cpi	r24, 0x33	; 51
     8fe:	19 f4       	brne	.+6      	; 0x906 <ADMIN_Mode+0x4e>
     900:	0e 94 f1 03 	call	0x7e2	; 0x7e2 <ADMIN_SetMaxBalance>
     904:	e4 cf       	rjmp	.-56     	; 0x8ce <ADMIN_Mode+0x16>
		else if (u8_choice == OPTION_GET_MAX_ACCOUNT) ADMIN_GetMaxBalance();
     906:	84 33       	cpi	r24, 0x34	; 52
     908:	19 f4       	brne	.+6      	; 0x910 <ADMIN_Mode+0x58>
     90a:	0e 94 31 04 	call	0x862	; 0x862 <ADMIN_GetMaxBalance>
     90e:	df cf       	rjmp	.-66     	; 0x8ce <ADMIN_Mode+0x16>
		else UART_TransmitString(UART_CH, STRING_INVALID_CHOICE);
     910:	6b ec       	ldi	r22, 0xCB	; 203
     912:	72 e0       	ldi	r23, 0x02	; 2
     914:	80 e0       	ldi	r24, 0x00	; 0
     916:	0e 94 13 13 	call	0x2626	; 0x2626 <UART_TransmitString>
     91a:	d9 cf       	rjmp	.-78     	; 0x8ce <ADMIN_Mode+0x16>
	}
}
     91c:	0f 90       	pop	r0
     91e:	df 91       	pop	r29
     920:	cf 91       	pop	r28
     922:	08 95       	ret

00000924 <ATM_Init>:

uint8_t ATM_Init()
{
   uint8_t ErrRetVal = OperationStarted;
   /*initializing the UART Module*/
   UART_Init(UART_1); //Essam
     924:	80 e0       	ldi	r24, 0x00	; 0
     926:	0e 94 fb 12 	call	0x25f6	; 0x25f6 <UART_Init>
   /*initializing the SPI*/
   SPI_Init(SPIChannel_1); //Adel
     92a:	81 e0       	ldi	r24, 0x01	; 1
     92c:	0e 94 ce 11 	call	0x239c	; 0x239c <SPI_Init>
   /*initializing the push button*/
   PSHBTTN_Init(PORT_C, PIN3, PULLED_DWN); //Adel
     930:	41 e0       	ldi	r20, 0x01	; 1
     932:	63 e0       	ldi	r22, 0x03	; 3
     934:	82 e0       	ldi	r24, 0x02	; 2
     936:	0e 94 d5 09 	call	0x13aa	; 0x13aa <PSHBTTN_Init>
   /*initializing the keypad*/
   KEYPAD_Init(); //Rehab
     93a:	0e 94 f6 0a 	call	0x15ec	; 0x15ec <KEYPAD_Init>
   /*initializing the ATM LCD*/
   LCD_Init(); //Rehab
     93e:	0e 94 bb 0c 	call	0x1976	; 0x1976 <LCD_Init>
   /*initializing the motor*/
   MOTOR_INIT(); //Marco
     942:	0e 94 f1 0e 	call	0x1de2	; 0x1de2 <MOTOR_INIT>
   /*initializing the EEPROM*/
   EEPROM_Init(EEPROM_CH_0); //Wagdy
     946:	81 e0       	ldi	r24, 0x01	; 1
     948:	0e 94 0b 0a 	call	0x1416	; 0x1416 <EEPROM_Init>
   /*initializing temperature sensor*/
   /*this line could require further modification*/
   TEMP_Init(TEMP_CH_0); //Essam
     94c:	80 e0       	ldi	r24, 0x00	; 0
     94e:	0e 94 06 0f 	call	0x1e0c	; 0x1e0c <TEMP_Init>
   ErrRetVal=OperationSuccess;
   return ErrRetVal;
}
     952:	80 e0       	ldi	r24, 0x00	; 0
     954:	08 95       	ret

00000956 <ATM_SelectMode>:

uint8_t ATM_SelectMode() //Adel
{
     956:	cf 93       	push	r28
     958:	df 93       	push	r29
     95a:	cd b7       	in	r28, 0x3d	; 61
     95c:	de b7       	in	r29, 0x3e	; 62
     95e:	cf 5f       	subi	r28, 0xFF	; 255
     960:	d1 09       	sbc	r29, r1
     962:	0f b6       	in	r0, 0x3f	; 63
     964:	f8 94       	cli
     966:	de bf       	out	0x3e, r29	; 62
     968:	0f be       	out	0x3f, r0	; 63
     96a:	cd bf       	out	0x3d, r28	; 61
   uint8_t ErrRetVal = OperationStarted;
   /*local buffer for receiving user input from terminal*/
   uint8_t Character[255];
   /*Receiving user input from terminal*/
   UART_ReceiveString(UART_1, Character); //Essam
     96c:	be 01       	movw	r22, r28
     96e:	6f 5f       	subi	r22, 0xFF	; 255
     970:	7f 4f       	sbci	r23, 0xFF	; 255
     972:	80 e0       	ldi	r24, 0x00	; 0
     974:	0e 94 2f 13 	call	0x265e	; 0x265e <UART_ReceiveString>
   /*Check if entered string is "ADMIN"*/
   if(StringCompare(Character,(uint8_t*)"ADMIN")==TRUE) //Wagdy
     978:	6e ee       	ldi	r22, 0xEE	; 238
     97a:	72 e0       	ldi	r23, 0x02	; 2
     97c:	ce 01       	movw	r24, r28
     97e:	01 96       	adiw	r24, 0x01	; 1
     980:	0e 94 de 0f 	call	0x1fbc	; 0x1fbc <StringCompare>
     984:	81 30       	cpi	r24, 0x01	; 1
     986:	21 f4       	brne	.+8      	; 0x990 <ATM_SelectMode+0x3a>
   {
      /*Entering programming mode*/
      ADMIN_Mode(); //Marco
     988:	0e 94 5c 04 	call	0x8b8	; 0x8b8 <ADMIN_Mode>
      ErrRetVal=OperationSuccess;
     98c:	80 e0       	ldi	r24, 0x00	; 0
     98e:	12 c0       	rjmp	.+36     	; 0x9b4 <ATM_SelectMode+0x5e>
   }
   /*check if entered string is "USER"*/
   else if (StringCompare(Character,(uint8_t*)"USER")==TRUE)//Wagdy
     990:	64 ef       	ldi	r22, 0xF4	; 244
     992:	72 e0       	ldi	r23, 0x02	; 2
     994:	ce 01       	movw	r24, r28
     996:	01 96       	adiw	r24, 0x01	; 1
     998:	0e 94 de 0f 	call	0x1fbc	; 0x1fbc <StringCompare>
     99c:	81 30       	cpi	r24, 0x01	; 1
     99e:	21 f4       	brne	.+8      	; 0x9a8 <ATM_SelectMode+0x52>
   {
      /*Entering user mode*/
      USER_Mode(); //Adel
     9a0:	0e 94 ce 09 	call	0x139c	; 0x139c <USER_Mode>
      ErrRetVal=OperationSuccess;
     9a4:	80 e0       	ldi	r24, 0x00	; 0
     9a6:	06 c0       	rjmp	.+12     	; 0x9b4 <ATM_SelectMode+0x5e>
   }
   else
   {
      /*letting the user know that he have entered an invalid input*/
      UART_TransmitString(UART_1,(uint8_t*)"Invalid input Please enter a valid choice"); //Essam
     9a8:	69 ef       	ldi	r22, 0xF9	; 249
     9aa:	72 e0       	ldi	r23, 0x02	; 2
     9ac:	80 e0       	ldi	r24, 0x00	; 0
     9ae:	0e 94 13 13 	call	0x2626	; 0x2626 <UART_TransmitString>
   return ErrRetVal;
}

uint8_t ATM_SelectMode() //Adel
{
   uint8_t ErrRetVal = OperationStarted;
     9b2:	8f ef       	ldi	r24, 0xFF	; 255
   {
      /*letting the user know that he have entered an invalid input*/
      UART_TransmitString(UART_1,(uint8_t*)"Invalid input Please enter a valid choice"); //Essam
   }
   return ErrRetVal;
     9b4:	c1 50       	subi	r28, 0x01	; 1
     9b6:	df 4f       	sbci	r29, 0xFF	; 255
     9b8:	0f b6       	in	r0, 0x3f	; 63
     9ba:	f8 94       	cli
     9bc:	de bf       	out	0x3e, r29	; 62
     9be:	0f be       	out	0x3f, r0	; 63
     9c0:	cd bf       	out	0x3d, r28	; 61
     9c2:	df 91       	pop	r29
     9c4:	cf 91       	pop	r28
     9c6:	08 95       	ret

000009c8 <StringCmpr>:
#define PAN_Size     (uint8_t)10
#define TRUE         (uint8_t)(1)
ST_cardData_t ST_CurrrentCardDATA;
f32_t f32_EnteredAmount;
uint8_t BTN_Flag=0;
static uint8_t StringCmpr(ptr_uint8_t STRING_1, ptr_uint8_t STRING_2) {
     9c8:	dc 01       	movw	r26, r24
	uint8_t i = 0;
     9ca:	40 e0       	ldi	r20, 0x00	; 0
	while ((STRING_1[i] != NULL_TERMINATOR) || (STRING_2[i] != NULL_TERMINATOR)) {
     9cc:	07 c0       	rjmp	.+14     	; 0x9dc <StringCmpr+0x14>
		if (STRING_1[i] != STRING_2[i]) {
     9ce:	fb 01       	movw	r30, r22
     9d0:	e2 0f       	add	r30, r18
     9d2:	f3 1f       	adc	r31, r19
     9d4:	20 81       	ld	r18, Z
     9d6:	92 13       	cpse	r25, r18
     9d8:	11 c0       	rjmp	.+34     	; 0x9fc <StringCmpr+0x34>
			return 0;
		} else {
		}
		i++;
     9da:	4f 5f       	subi	r20, 0xFF	; 255
ST_cardData_t ST_CurrrentCardDATA;
f32_t f32_EnteredAmount;
uint8_t BTN_Flag=0;
static uint8_t StringCmpr(ptr_uint8_t STRING_1, ptr_uint8_t STRING_2) {
	uint8_t i = 0;
	while ((STRING_1[i] != NULL_TERMINATOR) || (STRING_2[i] != NULL_TERMINATOR)) {
     9dc:	24 2f       	mov	r18, r20
     9de:	30 e0       	ldi	r19, 0x00	; 0
     9e0:	fd 01       	movw	r30, r26
     9e2:	e2 0f       	add	r30, r18
     9e4:	f3 1f       	adc	r31, r19
     9e6:	90 81       	ld	r25, Z
     9e8:	91 11       	cpse	r25, r1
     9ea:	f1 cf       	rjmp	.-30     	; 0x9ce <StringCmpr+0x6>
     9ec:	fb 01       	movw	r30, r22
     9ee:	e2 0f       	add	r30, r18
     9f0:	f3 1f       	adc	r31, r19
     9f2:	80 81       	ld	r24, Z
     9f4:	81 11       	cpse	r24, r1
     9f6:	eb cf       	rjmp	.-42     	; 0x9ce <StringCmpr+0x6>
			return 0;
		} else {
		}
		i++;
	}
	return 1;
     9f8:	81 e0       	ldi	r24, 0x01	; 1
     9fa:	08 95       	ret
uint8_t BTN_Flag=0;
static uint8_t StringCmpr(ptr_uint8_t STRING_1, ptr_uint8_t STRING_2) {
	uint8_t i = 0;
	while ((STRING_1[i] != NULL_TERMINATOR) || (STRING_2[i] != NULL_TERMINATOR)) {
		if (STRING_1[i] != STRING_2[i]) {
			return 0;
     9fc:	80 e0       	ldi	r24, 0x00	; 0
		} else {
		}
		i++;
	}
	return 1;
}
     9fe:	08 95       	ret

00000a00 <findLength>:

static uint32_t findLength(ptr_uint8_t str){
     a00:	ac 01       	movw	r20, r24
	uint32_t size = 0;
     a02:	80 e0       	ldi	r24, 0x00	; 0
     a04:	90 e0       	ldi	r25, 0x00	; 0
	while (str[size])
     a06:	01 c0       	rjmp	.+2      	; 0xa0a <findLength+0xa>
	{
		size ++;
     a08:	01 96       	adiw	r24, 0x01	; 1
	return 1;
}

static uint32_t findLength(ptr_uint8_t str){
	uint32_t size = 0;
	while (str[size])
     a0a:	fa 01       	movw	r30, r20
     a0c:	e8 0f       	add	r30, r24
     a0e:	f9 1f       	adc	r31, r25
     a10:	20 81       	ld	r18, Z
     a12:	21 11       	cpse	r18, r1
     a14:	f9 cf       	rjmp	.-14     	; 0xa08 <findLength+0x8>
	{
		size ++;
	}
	
	return size;
}
     a16:	08 95       	ret

00000a18 <stof>:

static f32_t stof(ptr_uint8_t str)
{
     a18:	7f 92       	push	r7
     a1a:	8f 92       	push	r8
     a1c:	9f 92       	push	r9
     a1e:	af 92       	push	r10
     a20:	bf 92       	push	r11
     a22:	cf 92       	push	r12
     a24:	df 92       	push	r13
     a26:	ef 92       	push	r14
     a28:	ff 92       	push	r15
     a2a:	0f 93       	push	r16
     a2c:	1f 93       	push	r17
     a2e:	cf 93       	push	r28
     a30:	df 93       	push	r29
     a32:	6c 01       	movw	r12, r24
	
	f32_t result= 0.0;
	uint32_t len = findLength(str);
     a34:	0e 94 00 05 	call	0xa00	; 0xa00 <findLength>
     a38:	7c 01       	movw	r14, r24
	uint32_t dotPosition = 0;

	for (int i = 0; i < len; i++)
     a3a:	c0 e0       	ldi	r28, 0x00	; 0
     a3c:	d0 e0       	ldi	r29, 0x00	; 0
static f32_t stof(ptr_uint8_t str)
{
	
	f32_t result= 0.0;
	uint32_t len = findLength(str);
	uint32_t dotPosition = 0;
     a3e:	00 e0       	ldi	r16, 0x00	; 0
     a40:	10 e0       	ldi	r17, 0x00	; 0
}

static f32_t stof(ptr_uint8_t str)
{
	
	f32_t result= 0.0;
     a42:	60 e0       	ldi	r22, 0x00	; 0
     a44:	70 e0       	ldi	r23, 0x00	; 0
     a46:	cb 01       	movw	r24, r22
	uint32_t len = findLength(str);
	uint32_t dotPosition = 0;

	for (int i = 0; i < len; i++)
     a48:	24 c0       	rjmp	.+72     	; 0xa92 <stof+0x7a>
	{
		if (str[i] == '.')
     a4a:	f6 01       	movw	r30, r12
     a4c:	ec 0f       	add	r30, r28
     a4e:	fd 1f       	adc	r31, r29
     a50:	70 80       	ld	r7, Z
     a52:	4e e2       	ldi	r20, 0x2E	; 46
     a54:	74 12       	cpse	r7, r20
     a56:	06 c0       	rjmp	.+12     	; 0xa64 <stof+0x4c>
		{
			dotPosition = len - i  - 1;
     a58:	87 01       	movw	r16, r14
     a5a:	02 1b       	sub	r16, r18
     a5c:	13 0b       	sbc	r17, r19
     a5e:	01 50       	subi	r16, 0x01	; 1
     a60:	11 09       	sbc	r17, r1
     a62:	16 c0       	rjmp	.+44     	; 0xa90 <stof+0x78>
		}
		else
		{
			result = result * 10.0 + (str[i]-'0');
     a64:	20 e0       	ldi	r18, 0x00	; 0
     a66:	30 e0       	ldi	r19, 0x00	; 0
     a68:	40 e2       	ldi	r20, 0x20	; 32
     a6a:	51 e4       	ldi	r21, 0x41	; 65
     a6c:	0e 94 91 15 	call	0x2b22	; 0x2b22 <__mulsf3>
     a70:	4b 01       	movw	r8, r22
     a72:	5c 01       	movw	r10, r24
     a74:	67 2d       	mov	r22, r7
     a76:	70 e0       	ldi	r23, 0x00	; 0
     a78:	60 53       	subi	r22, 0x30	; 48
     a7a:	71 09       	sbc	r23, r1
     a7c:	07 2e       	mov	r0, r23
     a7e:	00 0c       	add	r0, r0
     a80:	88 0b       	sbc	r24, r24
     a82:	99 0b       	sbc	r25, r25
     a84:	0e 94 dc 14 	call	0x29b8	; 0x29b8 <__floatsisf>
     a88:	a5 01       	movw	r20, r10
     a8a:	94 01       	movw	r18, r8
     a8c:	0e 94 c8 13 	call	0x2790	; 0x2790 <__addsf3>
	
	f32_t result= 0.0;
	uint32_t len = findLength(str);
	uint32_t dotPosition = 0;

	for (int i = 0; i < len; i++)
     a90:	21 96       	adiw	r28, 0x01	; 1
     a92:	9e 01       	movw	r18, r28
     a94:	ce 15       	cp	r28, r14
     a96:	df 05       	cpc	r29, r15
     a98:	c0 f2       	brcs	.-80     	; 0xa4a <stof+0x32>
     a9a:	07 c0       	rjmp	.+14     	; 0xaaa <stof+0x92>
		}
	}

	while (dotPosition--)
	{
		result /= 10.0;
     a9c:	20 e0       	ldi	r18, 0x00	; 0
     a9e:	30 e0       	ldi	r19, 0x00	; 0
     aa0:	40 e2       	ldi	r20, 0x20	; 32
     aa2:	51 e4       	ldi	r21, 0x41	; 65
     aa4:	0e 94 39 14 	call	0x2872	; 0x2872 <__divsf3>
		{
			result = result * 10.0 + (str[i]-'0');
		}
	}

	while (dotPosition--)
     aa8:	8e 01       	movw	r16, r28
     aaa:	e8 01       	movw	r28, r16
     aac:	21 97       	sbiw	r28, 0x01	; 1
     aae:	01 2b       	or	r16, r17
     ab0:	a9 f7       	brne	.-22     	; 0xa9c <stof+0x84>
		result /= 10.0;
	}

	return result;
	
}
     ab2:	df 91       	pop	r29
     ab4:	cf 91       	pop	r28
     ab6:	1f 91       	pop	r17
     ab8:	0f 91       	pop	r16
     aba:	ff 90       	pop	r15
     abc:	ef 90       	pop	r14
     abe:	df 90       	pop	r13
     ac0:	cf 90       	pop	r12
     ac2:	bf 90       	pop	r11
     ac4:	af 90       	pop	r10
     ac6:	9f 90       	pop	r9
     ac8:	8f 90       	pop	r8
     aca:	7f 90       	pop	r7
     acc:	08 95       	ret

00000ace <display_CardRemoved>:
	   USER_Interface(); //Adel
   }   
}

void display_CardRemoved(void)
{
     ace:	cf 93       	push	r28
     ad0:	df 93       	push	r29
     ad2:	1f 92       	push	r1
     ad4:	cd b7       	in	r28, 0x3d	; 61
     ad6:	de b7       	in	r29, 0x3e	; 62
   uint8_t Dummy;
   LCD_SendCommand(LCD_CLEAR_DISPALY); //Rehab
     ad8:	81 e0       	ldi	r24, 0x01	; 1
     ada:	0e 94 d1 0b 	call	0x17a2	; 0x17a2 <LCD_SendCommand>
   LCD_SendCommand(LCD_RETURN_HOME); //Rehab
     ade:	82 e0       	ldi	r24, 0x02	; 2
     ae0:	0e 94 d1 0b 	call	0x17a2	; 0x17a2 <LCD_SendCommand>
   LCD_SendString((ptr_int8_t) "Card Removed"); //Rehab
     ae4:	83 e2       	ldi	r24, 0x23	; 35
     ae6:	93 e0       	ldi	r25, 0x03	; 3
     ae8:	0e 94 84 0e 	call	0x1d08	; 0x1d08 <LCD_SendString>
   /*Start of Press any key...*/
   LCD_SendCommand(LCD_LINE2_DDRAM_ADDRESS(0)); //Rehab
     aec:	80 ec       	ldi	r24, 0xC0	; 192
     aee:	0e 94 d1 0b 	call	0x17a2	; 0x17a2 <LCD_SendCommand>
   LCD_SendString((ptr_int8_t) "Press any key..."); //Rehab
     af2:	80 e3       	ldi	r24, 0x30	; 48
     af4:	93 e0       	ldi	r25, 0x03	; 3
     af6:	0e 94 84 0e 	call	0x1d08	; 0x1d08 <LCD_SendString>
   KEYPAD_MustPressed(&Dummy);//Rehab
     afa:	ce 01       	movw	r24, r28
     afc:	01 96       	adiw	r24, 0x01	; 1
     afe:	0e 94 c4 0b 	call	0x1788	; 0x1788 <KEYPAD_MustPressed>
   while(Dummy != 0)
     b02:	04 c0       	rjmp	.+8      	; 0xb0c <display_CardRemoved+0x3e>
   {
      KEYPAD_ReadKey(&Dummy);//Rehab
     b04:	ce 01       	movw	r24, r28
     b06:	01 96       	adiw	r24, 0x01	; 1
     b08:	0e 94 4b 0b 	call	0x1696	; 0x1696 <KEYPAD_ReadKey>
   LCD_SendString((ptr_int8_t) "Card Removed"); //Rehab
   /*Start of Press any key...*/
   LCD_SendCommand(LCD_LINE2_DDRAM_ADDRESS(0)); //Rehab
   LCD_SendString((ptr_int8_t) "Press any key..."); //Rehab
   KEYPAD_MustPressed(&Dummy);//Rehab
   while(Dummy != 0)
     b0c:	89 81       	ldd	r24, Y+1	; 0x01
     b0e:	81 11       	cpse	r24, r1
     b10:	f9 cf       	rjmp	.-14     	; 0xb04 <display_CardRemoved+0x36>
   {
      KEYPAD_ReadKey(&Dummy);//Rehab
   }
}
     b12:	0f 90       	pop	r0
     b14:	df 91       	pop	r29
     b16:	cf 91       	pop	r28
     b18:	08 95       	ret

00000b1a <display_ShowMenu>:
}

void display_ShowMenu()
{
	/*Clear LCD and set cursor to the first position in the top row*/
	LCD_SendCommand(LCD_CLEAR_DISPALY); //Rehab
     b1a:	81 e0       	ldi	r24, 0x01	; 1
     b1c:	0e 94 d1 0b 	call	0x17a2	; 0x17a2 <LCD_SendCommand>
	//LCD_SendCommand(LCD_LINE1_DDRAM_ADDRESS(0)); //Rehab
	LCD_SendCommand(LCD_LINE1_DDRAM_ADDRESS(0)); //Rehab
     b20:	80 e8       	ldi	r24, 0x80	; 128
     b22:	0e 94 d1 0b 	call	0x17a2	; 0x17a2 <LCD_SendCommand>
	/*printing string on LCD*/
	LCD_SendString( (ptr_int8_t)"1-Insert Card"); //Rehab
     b26:	81 e4       	ldi	r24, 0x41	; 65
     b28:	93 e0       	ldi	r25, 0x03	; 3
     b2a:	0e 94 84 0e 	call	0x1d08	; 0x1d08 <LCD_SendString>
	/*Set cursor to the first position in the Lower row*/
	LCD_SendCommand(LCD_LINE2_DDRAM_ADDRESS(0)); //Rehab
     b2e:	80 ec       	ldi	r24, 0xC0	; 192
     b30:	0e 94 d1 0b 	call	0x17a2	; 0x17a2 <LCD_SendCommand>
	/*printing string on LCD*/
	LCD_SendString((ptr_int8_t)"2-Display Temp"); //Rehab
     b34:	8f e4       	ldi	r24, 0x4F	; 79
     b36:	93 e0       	ldi	r25, 0x03	; 3
     b38:	0e 94 84 0e 	call	0x1d08	; 0x1d08 <LCD_SendString>
     b3c:	08 95       	ret

00000b3e <diplay_PANNotExist>:

	*ErrRetVal = OperationSuccess;
}

void diplay_PANNotExist( uint8_t Dummy, ptr_uint8_t ErrRetVal )
{
     b3e:	0f 93       	push	r16
     b40:	1f 93       	push	r17
     b42:	cf 93       	push	r28
     b44:	df 93       	push	r29
     b46:	1f 92       	push	r1
     b48:	cd b7       	in	r28, 0x3d	; 61
     b4a:	de b7       	in	r29, 0x3e	; 62
     b4c:	89 83       	std	Y+1, r24	; 0x01
     b4e:	8b 01       	movw	r16, r22
	LCD_SendCommand(LCD_CLEAR_DISPALY); //Rehab
     b50:	81 e0       	ldi	r24, 0x01	; 1
     b52:	0e 94 d1 0b 	call	0x17a2	; 0x17a2 <LCD_SendCommand>
	LCD_SendCommand(LCD_LINE1_DDRAM_ADDRESS(0)); //Rehab
     b56:	80 e8       	ldi	r24, 0x80	; 128
     b58:	0e 94 d1 0b 	call	0x17a2	; 0x17a2 <LCD_SendCommand>
	LCD_SendString((ptr_int8_t) "Card Declined");
     b5c:	8e e5       	ldi	r24, 0x5E	; 94
     b5e:	93 e0       	ldi	r25, 0x03	; 3
     b60:	0e 94 84 0e 	call	0x1d08	; 0x1d08 <LCD_SendString>
	/*Start of Press any key...*/
	LCD_SendCommand(LCD_LINE2_DDRAM_ADDRESS(0)); //Rehab
     b64:	80 ec       	ldi	r24, 0xC0	; 192
     b66:	0e 94 d1 0b 	call	0x17a2	; 0x17a2 <LCD_SendCommand>
	LCD_SendString((ptr_int8_t) "Press any key..."); //Rehab
     b6a:	80 e3       	ldi	r24, 0x30	; 48
     b6c:	93 e0       	ldi	r25, 0x03	; 3
     b6e:	0e 94 84 0e 	call	0x1d08	; 0x1d08 <LCD_SendString>
	KEYPAD_MustPressed(&Dummy);//Rehab
     b72:	ce 01       	movw	r24, r28
     b74:	01 96       	adiw	r24, 0x01	; 1
     b76:	0e 94 c4 0b 	call	0x1788	; 0x1788 <KEYPAD_MustPressed>
	while(Dummy != 0)
     b7a:	04 c0       	rjmp	.+8      	; 0xb84 <diplay_PANNotExist+0x46>
	{
		KEYPAD_ReadKey(&Dummy);//Rehab
     b7c:	ce 01       	movw	r24, r28
     b7e:	01 96       	adiw	r24, 0x01	; 1
     b80:	0e 94 4b 0b 	call	0x1696	; 0x1696 <KEYPAD_ReadKey>
	LCD_SendString((ptr_int8_t) "Card Declined");
	/*Start of Press any key...*/
	LCD_SendCommand(LCD_LINE2_DDRAM_ADDRESS(0)); //Rehab
	LCD_SendString((ptr_int8_t) "Press any key..."); //Rehab
	KEYPAD_MustPressed(&Dummy);//Rehab
	while(Dummy != 0)
     b84:	89 81       	ldd	r24, Y+1	; 0x01
     b86:	81 11       	cpse	r24, r1
     b88:	f9 cf       	rjmp	.-14     	; 0xb7c <diplay_PANNotExist+0x3e>
	{
		KEYPAD_ReadKey(&Dummy);//Rehab
	}
	/*End of Press any key...*/
	*ErrRetVal = OperationSuccess;
     b8a:	f8 01       	movw	r30, r16
     b8c:	10 82       	st	Z, r1
}
     b8e:	0f 90       	pop	r0
     b90:	df 91       	pop	r29
     b92:	cf 91       	pop	r28
     b94:	1f 91       	pop	r17
     b96:	0f 91       	pop	r16
     b98:	08 95       	ret

00000b9a <display_CheckAmountInsufficient>:

void display_CheckAmountInsufficient( uint8_t Dummy, ptr_uint8_t ErrRetVal )
{
     b9a:	0f 93       	push	r16
     b9c:	1f 93       	push	r17
     b9e:	cf 93       	push	r28
     ba0:	df 93       	push	r29
     ba2:	1f 92       	push	r1
     ba4:	cd b7       	in	r28, 0x3d	; 61
     ba6:	de b7       	in	r29, 0x3e	; 62
     ba8:	89 83       	std	Y+1, r24	; 0x01
     baa:	8b 01       	movw	r16, r22
	LCD_SendCommand(LCD_CLEAR_DISPALY); //Rehab
     bac:	81 e0       	ldi	r24, 0x01	; 1
     bae:	0e 94 d1 0b 	call	0x17a2	; 0x17a2 <LCD_SendCommand>
	LCD_SendCommand(LCD_LINE1_DDRAM_ADDRESS(0)); //Rehab
     bb2:	80 e8       	ldi	r24, 0x80	; 128
     bb4:	0e 94 d1 0b 	call	0x17a2	; 0x17a2 <LCD_SendCommand>
	LCD_SendString((ptr_int8_t) "Not enough Fund"); //Rehab
     bb8:	8c e6       	ldi	r24, 0x6C	; 108
     bba:	93 e0       	ldi	r25, 0x03	; 3
     bbc:	0e 94 84 0e 	call	0x1d08	; 0x1d08 <LCD_SendString>
	/*Start of Press any key...*/
	LCD_SendCommand(LCD_LINE2_DDRAM_ADDRESS(0)); //Rehab
     bc0:	80 ec       	ldi	r24, 0xC0	; 192
     bc2:	0e 94 d1 0b 	call	0x17a2	; 0x17a2 <LCD_SendCommand>
	LCD_SendString((ptr_int8_t) "Press any key..."); //Rehab
     bc6:	80 e3       	ldi	r24, 0x30	; 48
     bc8:	93 e0       	ldi	r25, 0x03	; 3
     bca:	0e 94 84 0e 	call	0x1d08	; 0x1d08 <LCD_SendString>
	KEYPAD_MustPressed(&Dummy);//Rehab
     bce:	ce 01       	movw	r24, r28
     bd0:	01 96       	adiw	r24, 0x01	; 1
     bd2:	0e 94 c4 0b 	call	0x1788	; 0x1788 <KEYPAD_MustPressed>
	while(Dummy != 0)
     bd6:	04 c0       	rjmp	.+8      	; 0xbe0 <display_CheckAmountInsufficient+0x46>
	{
		KEYPAD_ReadKey(&Dummy);//Rehab
     bd8:	ce 01       	movw	r24, r28
     bda:	01 96       	adiw	r24, 0x01	; 1
     bdc:	0e 94 4b 0b 	call	0x1696	; 0x1696 <KEYPAD_ReadKey>
	LCD_SendString((ptr_int8_t) "Not enough Fund"); //Rehab
	/*Start of Press any key...*/
	LCD_SendCommand(LCD_LINE2_DDRAM_ADDRESS(0)); //Rehab
	LCD_SendString((ptr_int8_t) "Press any key..."); //Rehab
	KEYPAD_MustPressed(&Dummy);//Rehab
	while(Dummy != 0)
     be0:	89 81       	ldd	r24, Y+1	; 0x01
     be2:	81 11       	cpse	r24, r1
     be4:	f9 cf       	rjmp	.-14     	; 0xbd8 <display_CheckAmountInsufficient+0x3e>
	{
		KEYPAD_ReadKey(&Dummy);//Rehab
	}
	/*End of Press any key...*/
	*ErrRetVal = OperationSuccess;
     be6:	f8 01       	movw	r30, r16
     be8:	10 82       	st	Z, r1
}
     bea:	0f 90       	pop	r0
     bec:	df 91       	pop	r29
     bee:	cf 91       	pop	r28
     bf0:	1f 91       	pop	r17
     bf2:	0f 91       	pop	r16
     bf4:	08 95       	ret

00000bf6 <USER_GetCardData>:
	
}

uint8_t USER_GetCardData(void) {
	uint8_t Dummy;
	SPI_TransmitChar(SPIChannel_1,'K',SlaveID_1);
     bf6:	41 e0       	ldi	r20, 0x01	; 1
     bf8:	6b e4       	ldi	r22, 0x4B	; 75
     bfa:	81 e0       	ldi	r24, 0x01	; 1
     bfc:	0e 94 04 12 	call	0x2408	; 0x2408 <SPI_TransmitChar>
	while(!(SPI_StatusReg & 0x80));
     c00:	77 9b       	sbis	0x0e, 7	; 14
     c02:	fe cf       	rjmp	.-4      	; 0xc00 <USER_GetCardData+0xa>
	Dummy = SPI_DataReg;
     c04:	8f b1       	in	r24, 0x0f	; 15
	dummy_delay();
     c06:	0e 94 b4 0f 	call	0x1f68	; 0x1f68 <dummy_delay>
	dummy_delay();
     c0a:	0e 94 b4 0f 	call	0x1f68	; 0x1f68 <dummy_delay>
	dummy_delay();
     c0e:	0e 94 b4 0f 	call	0x1f68	; 0x1f68 <dummy_delay>
	
	/* Get Primary Account Number */
	SPI_ReceiveString(SPIChannel_1, ST_CurrrentCardDATA.primaryAccountNumber, SlaveID_1);
     c12:	41 e0       	ldi	r20, 0x01	; 1
     c14:	60 ea       	ldi	r22, 0xA0	; 160
     c16:	74 e0       	ldi	r23, 0x04	; 4
     c18:	81 e0       	ldi	r24, 0x01	; 1
     c1a:	0e 94 18 12 	call	0x2430	; 0x2430 <SPI_ReceiveString>
	/* Get PIN */
	SPI_ReceiveString(SPIChannel_1,ST_CurrrentCardDATA.pin, SlaveID_1);
     c1e:	41 e0       	ldi	r20, 0x01	; 1
     c20:	6a ea       	ldi	r22, 0xAA	; 170
     c22:	74 e0       	ldi	r23, 0x04	; 4
     c24:	81 e0       	ldi	r24, 0x01	; 1
     c26:	0e 94 18 12 	call	0x2430	; 0x2430 <SPI_ReceiveString>
	return 0;
}
     c2a:	80 e0       	ldi	r24, 0x00	; 0
     c2c:	08 95       	ret

00000c2e <display_WaitingData>:
   }
}

void display_WaitingData()
{
	LCD_SendCommand(LCD_CLEAR_DISPALY); //Rehab
     c2e:	81 e0       	ldi	r24, 0x01	; 1
     c30:	0e 94 d1 0b 	call	0x17a2	; 0x17a2 <LCD_SendCommand>
	LCD_SendCommand(LCD_LINE1_DDRAM_ADDRESS(0)); //Rehab
     c34:	80 e8       	ldi	r24, 0x80	; 128
     c36:	0e 94 d1 0b 	call	0x17a2	; 0x17a2 <LCD_SendCommand>
	LCD_SendString((ptr_int8_t) "Waiting for"); //Rehab
     c3a:	8c e7       	ldi	r24, 0x7C	; 124
     c3c:	93 e0       	ldi	r25, 0x03	; 3
     c3e:	0e 94 84 0e 	call	0x1d08	; 0x1d08 <LCD_SendString>
	LCD_SendCommand(LCD_LINE2_DDRAM_ADDRESS(0)); //Rehab
     c42:	80 ec       	ldi	r24, 0xC0	; 192
     c44:	0e 94 d1 0b 	call	0x17a2	; 0x17a2 <LCD_SendCommand>
	LCD_SendString((ptr_int8_t) "Card"); //Rehab
     c48:	8a e4       	ldi	r24, 0x4A	; 74
     c4a:	93 e0       	ldi	r25, 0x03	; 3
     c4c:	0e 94 84 0e 	call	0x1d08	; 0x1d08 <LCD_SendString>
	while(!(PSHBTTN_Status(PORT_A, PIN3)));//Adel
     c50:	63 e0       	ldi	r22, 0x03	; 3
     c52:	80 e0       	ldi	r24, 0x00	; 0
     c54:	0e 94 e9 09 	call	0x13d2	; 0x13d2 <PSHBTTN_Status>
     c58:	88 23       	and	r24, r24
     c5a:	d1 f3       	breq	.-12     	; 0xc50 <display_WaitingData+0x22>
	/*Get PAN from the card MCU*/
	USER_GetCardData(); //Essam
     c5c:	0e 94 fb 05 	call	0xbf6	; 0xbf6 <USER_GetCardData>
	LCD_SendCommand(LCD_CLEAR_DISPALY); //Rehab
     c60:	81 e0       	ldi	r24, 0x01	; 1
     c62:	0e 94 d1 0b 	call	0x17a2	; 0x17a2 <LCD_SendCommand>
	LCD_SendCommand(LCD_LINE1_DDRAM_ADDRESS(0)); //Rehab
     c66:	80 e8       	ldi	r24, 0x80	; 128
     c68:	0e 94 d1 0b 	call	0x17a2	; 0x17a2 <LCD_SendCommand>
	LCD_SendString((ptr_int8_t) "LOADING DATA...");
     c6c:	88 e8       	ldi	r24, 0x88	; 136
     c6e:	93 e0       	ldi	r25, 0x03	; 3
     c70:	0e 94 84 0e 	call	0x1d08	; 0x1d08 <LCD_SendString>
     c74:	08 95       	ret

00000c76 <USER_GetServerData>:
	/* Get PIN */
	SPI_ReceiveString(SPIChannel_1,ST_CurrrentCardDATA.pin, SlaveID_1);
	return 0;
}

EN_inServer_t USER_GetServerData(void) {
     c76:	ff 92       	push	r15
     c78:	0f 93       	push	r16
     c7a:	1f 93       	push	r17
     c7c:	cf 93       	push	r28
     c7e:	df 93       	push	r29
     c80:	cd b7       	in	r28, 0x3d	; 61
     c82:	de b7       	in	r29, 0x3e	; 62
     c84:	2b 97       	sbiw	r28, 0x0b	; 11
     c86:	0f b6       	in	r0, 0x3f	; 63
     c88:	f8 94       	cli
     c8a:	de bf       	out	0x3e, r29	; 62
     c8c:	0f be       	out	0x3f, r0	; 63
     c8e:	cd bf       	out	0x3d, r28	; 61
	/* BUFFER TO STORE THE PAN FROM SERVER AND COMPARE */
	uint8_t PAN_FROM_SERVER[PAN_Size ];
	
	uint8_t u8_AccountsNumber;
	uint8_t u8_AccountNumberCounter = 0;
	EEPROM_Read(EEPROM_CH_0,MEMORY_BLOCK_3,0x00,&u8_AccountsNumber);
     c90:	9e 01       	movw	r18, r28
     c92:	25 5f       	subi	r18, 0xF5	; 245
     c94:	3f 4f       	sbci	r19, 0xFF	; 255
     c96:	40 e0       	ldi	r20, 0x00	; 0
     c98:	64 ea       	ldi	r22, 0xA4	; 164
     c9a:	81 e0       	ldi	r24, 0x01	; 1
     c9c:	0e 94 18 0a 	call	0x1430	; 0x1430 <EEPROM_Read>
	if (u8_AccountsNumber == 'N')
     ca0:	8b 85       	ldd	r24, Y+11	; 0x0b
     ca2:	8e 34       	cpi	r24, 0x4E	; 78
     ca4:	c1 f1       	breq	.+112    	; 0xd16 <USER_GetServerData+0xa0>
	{
		return NOTEXIST;
	}
	/* GET PAN(10 byte including NULL)  */
	EEPROM_ReadBytes(EEPROM_CH_0, MEMORY_BLOCK_4, EEPROM_COUNTER,PAN_FROM_SERVER, PAN_Size);
     ca6:	0a e0       	ldi	r16, 0x0A	; 10
     ca8:	9e 01       	movw	r18, r28
     caa:	2f 5f       	subi	r18, 0xFF	; 255
     cac:	3f 4f       	sbci	r19, 0xFF	; 255
     cae:	40 e0       	ldi	r20, 0x00	; 0
     cb0:	66 ea       	ldi	r22, 0xA6	; 166
     cb2:	81 e0       	ldi	r24, 0x01	; 1
     cb4:	0e 94 8f 0a 	call	0x151e	; 0x151e <EEPROM_ReadBytes>
	//	uint8_t EEPROM_BLOCK=0;
	/* BUFFER TO STORE THE PAN FROM SERVER AND COMPARE */
	uint8_t PAN_FROM_SERVER[PAN_Size ];
	
	uint8_t u8_AccountsNumber;
	uint8_t u8_AccountNumberCounter = 0;
     cb8:	f1 2c       	mov	r15, r1

EN_inServer_t USER_GetServerData(void) {
	/* FLAG IF THE PAN EXIST */
	/*uint8_t matched = 0;*/
	/* EEPROM ADDRRESS COUNTER */
	uint8_t EEPROM_COUNTER = 0;
     cba:	10 e0       	ldi	r17, 0x00	; 0
		return NOTEXIST;
	}
	/* GET PAN(10 byte including NULL)  */
	EEPROM_ReadBytes(EEPROM_CH_0, MEMORY_BLOCK_4, EEPROM_COUNTER,PAN_FROM_SERVER, PAN_Size);
	/*STUCK IN THIS WHILE TILL YOU FIND A STRING MATCH */
	while (StringCmpr(PAN_FROM_SERVER, ST_CurrrentCardDATA.primaryAccountNumber)
     cbc:	14 c0       	rjmp	.+40     	; 0xce6 <USER_GetServerData+0x70>
	!= TRUE) {
		/*EVERY USER DATA STORED IN 14 BYTES IN EEPROM SO THE FIRST CHAR OF PAN EXIST IN 0,14,28,42,56,70,84.....252  */
		EEPROM_COUNTER = EEPROM_COUNTER + 14;
     cbe:	12 5f       	subi	r17, 0xF2	; 242
		u8_AccountNumberCounter++;
     cc0:	f3 94       	inc	r15
		EEPROM_ReadBytes(EEPROM_CH_0, MEMORY_BLOCK_4, EEPROM_COUNTER,
     cc2:	0a e0       	ldi	r16, 0x0A	; 10
     cc4:	9e 01       	movw	r18, r28
     cc6:	2f 5f       	subi	r18, 0xFF	; 255
     cc8:	3f 4f       	sbci	r19, 0xFF	; 255
     cca:	41 2f       	mov	r20, r17
     ccc:	66 ea       	ldi	r22, 0xA6	; 166
     cce:	81 e0       	ldi	r24, 0x01	; 1
     cd0:	0e 94 8f 0a 	call	0x151e	; 0x151e <EEPROM_ReadBytes>
		PAN_FROM_SERVER, PAN_Size);
		if (EEPROM_COUNTER >= 253 || u8_AccountNumberCounter >= u8_AccountsNumber) {
     cd4:	1d 3f       	cpi	r17, 0xFD	; 253
     cd6:	18 f4       	brcc	.+6      	; 0xcde <USER_GetServerData+0x68>
     cd8:	8b 85       	ldd	r24, Y+11	; 0x0b
     cda:	f8 16       	cp	r15, r24
     cdc:	20 f0       	brcs	.+8      	; 0xce6 <USER_GetServerData+0x70>
			/* IF NO MATCH RETURN 0 */
			ST_CurrrentCardDATA.index=0;
     cde:	10 92 af 04 	sts	0x04AF, r1	; 0x8004af <ST_CurrrentCardDATA+0x13>
			/* matched = 0;*/
			//			break;
			return NOTEXIST;
     ce2:	80 e0       	ldi	r24, 0x00	; 0
     ce4:	19 c0       	rjmp	.+50     	; 0xd18 <USER_GetServerData+0xa2>
		return NOTEXIST;
	}
	/* GET PAN(10 byte including NULL)  */
	EEPROM_ReadBytes(EEPROM_CH_0, MEMORY_BLOCK_4, EEPROM_COUNTER,PAN_FROM_SERVER, PAN_Size);
	/*STUCK IN THIS WHILE TILL YOU FIND A STRING MATCH */
	while (StringCmpr(PAN_FROM_SERVER, ST_CurrrentCardDATA.primaryAccountNumber)
     ce6:	60 ea       	ldi	r22, 0xA0	; 160
     ce8:	74 e0       	ldi	r23, 0x04	; 4
     cea:	ce 01       	movw	r24, r28
     cec:	01 96       	adiw	r24, 0x01	; 1
     cee:	0e 94 e4 04 	call	0x9c8	; 0x9c8 <StringCmpr>
     cf2:	81 30       	cpi	r24, 0x01	; 1
     cf4:	21 f7       	brne	.-56     	; 0xcbe <USER_GetServerData+0x48>
			//			break;
			return NOTEXIST;
		}
	}
	/* READ BALANCE FROM SERVER */
	EEPROM_ReadBytes(EEPROM_CH_0, MEMORY_BLOCK_4, (EEPROM_COUNTER + 10), (ptr_uint8_t) &(ST_CurrrentCardDATA.balance), sizeof(f32_t));
     cf6:	4a e0       	ldi	r20, 0x0A	; 10
     cf8:	41 0f       	add	r20, r17
     cfa:	04 e0       	ldi	r16, 0x04	; 4
     cfc:	2c e9       	ldi	r18, 0x9C	; 156
     cfe:	34 e0       	ldi	r19, 0x04	; 4
     d00:	66 ea       	ldi	r22, 0xA6	; 166
     d02:	0e 94 8f 0a 	call	0x151e	; 0x151e <EEPROM_ReadBytes>
	
	ST_CurrrentCardDATA.index = EEPROM_COUNTER;
     d06:	10 93 af 04 	sts	0x04AF, r17	; 0x8004af <ST_CurrrentCardDATA+0x13>
   UART_TransmitChar(UART_1, ST_CurrrentCardDATA.index);
     d0a:	61 2f       	mov	r22, r17
     d0c:	80 e0       	ldi	r24, 0x00	; 0
     d0e:	0e 94 0e 13 	call	0x261c	; 0x261c <UART_TransmitChar>
	//IF EXSIST
	//STORE BALANC FROM SERVER
	//return EXSIST
	//IF NOTEXSIST
	//return EXSIST
	return EXIST;
     d12:	81 e0       	ldi	r24, 0x01	; 1
     d14:	01 c0       	rjmp	.+2      	; 0xd18 <USER_GetServerData+0xa2>
	uint8_t u8_AccountsNumber;
	uint8_t u8_AccountNumberCounter = 0;
	EEPROM_Read(EEPROM_CH_0,MEMORY_BLOCK_3,0x00,&u8_AccountsNumber);
	if (u8_AccountsNumber == 'N')
	{
		return NOTEXIST;
     d16:	80 e0       	ldi	r24, 0x00	; 0
	//STORE BALANC FROM SERVER
	//return EXSIST
	//IF NOTEXSIST
	//return EXSIST
	return EXIST;
}
     d18:	2b 96       	adiw	r28, 0x0b	; 11
     d1a:	0f b6       	in	r0, 0x3f	; 63
     d1c:	f8 94       	cli
     d1e:	de bf       	out	0x3e, r29	; 62
     d20:	0f be       	out	0x3f, r0	; 63
     d22:	cd bf       	out	0x3d, r28	; 61
     d24:	df 91       	pop	r29
     d26:	cf 91       	pop	r28
     d28:	1f 91       	pop	r17
     d2a:	0f 91       	pop	r16
     d2c:	ff 90       	pop	r15
     d2e:	08 95       	ret

00000d30 <USER_PrintTemp>:
uint8_t USER_PrintTemp(uint8_t Temp_Ch){
     d30:	cf 93       	push	r28
     d32:	df 93       	push	r29
     d34:	1f 92       	push	r1
     d36:	cd b7       	in	r28, 0x3d	; 61
     d38:	de b7       	in	r29, 0x3e	; 62
	/*VARIABLE TO STORE TEMPRETURE*/
	uint8_t temperture=0;
     d3a:	19 82       	std	Y+1, r1	; 0x01
	/*VARRIABLEL TO CHECK IFF ANY KEY IS PRESSED*/
	/*uint8_t isPressed =0;*/
	/*GET TEMPERTURE AND STORE IT IN TERPRETURE*/
	TEMP_GetTemp(Temp_Ch,&temperture);
     d3c:	be 01       	movw	r22, r28
     d3e:	6f 5f       	subi	r22, 0xFF	; 255
     d40:	7f 4f       	sbci	r23, 0xFF	; 255
     d42:	0e 94 35 0f 	call	0x1e6a	; 0x1e6a <TEMP_GetTemp>
	/*PRINT IN LCD "TEMP IS ..."*/
	LCD_SendString((ptr_int8_t) "Temp is ");
     d46:	88 e9       	ldi	r24, 0x98	; 152
     d48:	93 e0       	ldi	r25, 0x03	; 3
     d4a:	0e 94 84 0e 	call	0x1d08	; 0x1d08 <LCD_SendString>
	LCD_SendNumber(temperture);
     d4e:	89 81       	ldd	r24, Y+1	; 0x01
     d50:	90 e0       	ldi	r25, 0x00	; 0
     d52:	0e 94 91 0e 	call	0x1d22	; 0x1d22 <LCD_SendNumber>
	//LCD_SendCommand(LCD_CLEAR_DISPALY);
	/*RETURN HOME*/
	//LCD_SendCommand(LCD_LINE1_DDRAM_ADDRESS(0));
	/*RETURN*/
	return 0;//SUCCESS
}
     d56:	80 e0       	ldi	r24, 0x00	; 0
     d58:	0f 90       	pop	r0
     d5a:	df 91       	pop	r29
     d5c:	cf 91       	pop	r28
     d5e:	08 95       	ret

00000d60 <User_Authenticate>:

uint8_t User_Authenticate(ptr_uint8_t PINState)
{
     d60:	cf 92       	push	r12
     d62:	df 92       	push	r13
     d64:	ff 92       	push	r15
     d66:	0f 93       	push	r16
     d68:	1f 93       	push	r17
     d6a:	cf 93       	push	r28
     d6c:	df 93       	push	r29
     d6e:	00 d0       	rcall	.+0      	; 0xd70 <User_Authenticate+0x10>
     d70:	00 d0       	rcall	.+0      	; 0xd72 <User_Authenticate+0x12>
     d72:	00 d0       	rcall	.+0      	; 0xd74 <User_Authenticate+0x14>
     d74:	cd b7       	in	r28, 0x3d	; 61
     d76:	de b7       	in	r29, 0x3e	; 62
     d78:	6c 01       	movw	r12, r24
	uint8_t au8_EnteredPIN[PIN_LENGTH];
	sint32_t int32_StringState;
	
	//1-print on LCD Please enter the pin number
	LCD_SendCommand(LCD_CLEAR_DISPALY);
     d7a:	81 e0       	ldi	r24, 0x01	; 1
     d7c:	0e 94 d1 0b 	call	0x17a2	; 0x17a2 <LCD_SendCommand>
	LCD_SendCommand(LCD_LINE1_DDRAM_ADDRESS(0));
     d80:	80 e8       	ldi	r24, 0x80	; 128
     d82:	0e 94 d1 0b 	call	0x17a2	; 0x17a2 <LCD_SendCommand>
	LCD_SendString((ptr_int8_t) "Enter PIN");
     d86:	81 ea       	ldi	r24, 0xA1	; 161
     d88:	93 e0       	ldi	r25, 0x03	; 3
     d8a:	0e 94 84 0e 	call	0x1d08	; 0x1d08 <LCD_SendString>
	
	//2-read pin from keypad till enter 5 numbers
	for(uint8_t i=0;i<PIN_LENGTH;i++)
     d8e:	f1 2c       	mov	r15, r1
     d90:	2b c0       	rjmp	.+86     	; 0xde8 <User_Authenticate+0x88>
	{
		LCD_SendCommand(LCD_LINE2_DDRAM_ADDRESS(i));
     d92:	8f 2d       	mov	r24, r15
     d94:	80 6c       	ori	r24, 0xC0	; 192
     d96:	0e 94 d1 0b 	call	0x17a2	; 0x17a2 <LCD_SendCommand>
		if(i==4)
     d9a:	84 e0       	ldi	r24, 0x04	; 4
     d9c:	f8 12       	cpse	r15, r24
     d9e:	08 c0       	rjmp	.+16     	; 0xdb0 <User_Authenticate+0x50>
		{
			au8_EnteredPIN[i]='\0';
     da0:	e1 e0       	ldi	r30, 0x01	; 1
     da2:	f0 e0       	ldi	r31, 0x00	; 0
     da4:	ec 0f       	add	r30, r28
     da6:	fd 1f       	adc	r31, r29
     da8:	ef 0d       	add	r30, r15
     daa:	f1 1d       	adc	r31, r1
     dac:	10 82       	st	Z, r1
			break;
     dae:	1f c0       	rjmp	.+62     	; 0xdee <User_Authenticate+0x8e>
		}
		KEYPAD_MustPressed(&au8_EnteredPIN[i]);
     db0:	0f 2d       	mov	r16, r15
     db2:	10 e0       	ldi	r17, 0x00	; 0
     db4:	81 e0       	ldi	r24, 0x01	; 1
     db6:	90 e0       	ldi	r25, 0x00	; 0
     db8:	8c 0f       	add	r24, r28
     dba:	9d 1f       	adc	r25, r29
     dbc:	80 0f       	add	r24, r16
     dbe:	91 1f       	adc	r25, r17
     dc0:	0e 94 c4 0b 	call	0x1788	; 0x1788 <KEYPAD_MustPressed>
		LCD_SendData('*');
     dc4:	8a e2       	ldi	r24, 0x2A	; 42
     dc6:	0e 94 9e 0d 	call	0x1b3c	; 0x1b3c <LCD_SendData>
		while(1)
		{
			uint8_t u8_Key;
			KEYPAD_ReadKey(&u8_Key);
     dca:	ce 01       	movw	r24, r28
     dcc:	06 96       	adiw	r24, 0x06	; 6
     dce:	0e 94 4b 0b 	call	0x1696	; 0x1696 <KEYPAD_ReadKey>
			if(u8_Key!=au8_EnteredPIN[i])
     dd2:	e1 e0       	ldi	r30, 0x01	; 1
     dd4:	f0 e0       	ldi	r31, 0x00	; 0
     dd6:	ec 0f       	add	r30, r28
     dd8:	fd 1f       	adc	r31, r29
     dda:	e0 0f       	add	r30, r16
     ddc:	f1 1f       	adc	r31, r17
     dde:	90 81       	ld	r25, Z
     de0:	8e 81       	ldd	r24, Y+6	; 0x06
     de2:	98 17       	cp	r25, r24
     de4:	91 f3       	breq	.-28     	; 0xdca <User_Authenticate+0x6a>
	LCD_SendCommand(LCD_CLEAR_DISPALY);
	LCD_SendCommand(LCD_LINE1_DDRAM_ADDRESS(0));
	LCD_SendString((ptr_int8_t) "Enter PIN");
	
	//2-read pin from keypad till enter 5 numbers
	for(uint8_t i=0;i<PIN_LENGTH;i++)
     de6:	f3 94       	inc	r15
     de8:	e4 e0       	ldi	r30, 0x04	; 4
     dea:	ef 15       	cp	r30, r15
     dec:	90 f6       	brcc	.-92     	; 0xd92 <User_Authenticate+0x32>
		}
		
	}
	
	//3-check if entered PIN equal Saved PIN or not
	int32_StringState=StringCompare(au8_EnteredPIN,ST_CurrrentCardDATA.pin);
     dee:	6a ea       	ldi	r22, 0xAA	; 170
     df0:	74 e0       	ldi	r23, 0x04	; 4
     df2:	ce 01       	movw	r24, r28
     df4:	01 96       	adiw	r24, 0x01	; 1
     df6:	0e 94 de 0f 	call	0x1fbc	; 0x1fbc <StringCompare>
	
	//4-update PINState and return
	if(int32_StringState==TRUE)
     dfa:	81 30       	cpi	r24, 0x01	; 1
     dfc:	19 f4       	brne	.+6      	; 0xe04 <User_Authenticate+0xa4>
	{
		*PINState=CORRECT_PIN;
     dfe:	f6 01       	movw	r30, r12
     e00:	80 83       	st	Z, r24
     e02:	02 c0       	rjmp	.+4      	; 0xe08 <User_Authenticate+0xa8>
	}
	else
	{
		*PINState=WRONG_PIN;
     e04:	f6 01       	movw	r30, r12
     e06:	10 82       	st	Z, r1
	}
	return OperationSuccess;
}
     e08:	80 e0       	ldi	r24, 0x00	; 0
     e0a:	26 96       	adiw	r28, 0x06	; 6
     e0c:	0f b6       	in	r0, 0x3f	; 63
     e0e:	f8 94       	cli
     e10:	de bf       	out	0x3e, r29	; 62
     e12:	0f be       	out	0x3f, r0	; 63
     e14:	cd bf       	out	0x3d, r28	; 61
     e16:	df 91       	pop	r29
     e18:	cf 91       	pop	r28
     e1a:	1f 91       	pop	r17
     e1c:	0f 91       	pop	r16
     e1e:	ff 90       	pop	r15
     e20:	df 90       	pop	r13
     e22:	cf 90       	pop	r12
     e24:	08 95       	ret

00000e26 <User_CheckAmount>:


uint8_t User_CheckAmount(ptr_uint8_t AmountState)
{
     e26:	8f 92       	push	r8
     e28:	9f 92       	push	r9
     e2a:	af 92       	push	r10
     e2c:	bf 92       	push	r11
     e2e:	df 92       	push	r13
     e30:	ef 92       	push	r14
     e32:	ff 92       	push	r15
     e34:	0f 93       	push	r16
     e36:	1f 93       	push	r17
     e38:	cf 93       	push	r28
     e3a:	df 93       	push	r29
     e3c:	cd b7       	in	r28, 0x3d	; 61
     e3e:	de b7       	in	r29, 0x3e	; 62
     e40:	2d 97       	sbiw	r28, 0x0d	; 13
     e42:	0f b6       	in	r0, 0x3f	; 63
     e44:	f8 94       	cli
     e46:	de bf       	out	0x3e, r29	; 62
     e48:	0f be       	out	0x3f, r0	; 63
     e4a:	cd bf       	out	0x3d, r28	; 61
     e4c:	7c 01       	movw	r14, r24
	uint8_t au8_EnteredAmount[AMOUNT_LENGTH];
	f32_t f32_MaxAmount;
	
	//1-print on LCD Please enter the required Amount
	LCD_SendCommand(LCD_CLEAR_DISPALY);
     e4e:	81 e0       	ldi	r24, 0x01	; 1
     e50:	0e 94 d1 0b 	call	0x17a2	; 0x17a2 <LCD_SendCommand>
	LCD_SendCommand(LCD_LINE1_DDRAM_ADDRESS(0));
     e54:	80 e8       	ldi	r24, 0x80	; 128
     e56:	0e 94 d1 0b 	call	0x17a2	; 0x17a2 <LCD_SendCommand>
	LCD_SendString((ptr_int8_t) "Enter Amount");
     e5a:	8b ea       	ldi	r24, 0xAB	; 171
     e5c:	93 e0       	ldi	r25, 0x03	; 3
     e5e:	0e 94 84 0e 	call	0x1d08	; 0x1d08 <LCD_SendString>
	
	//2-read amount from keypad till enter 7 numbers
	for(uint8_t i=0;i<AMOUNT_LENGTH;i++)
     e62:	d1 2c       	mov	r13, r1
     e64:	58 c0       	rjmp	.+176    	; 0xf16 <User_CheckAmount+0xf0>
	{
		LCD_SendCommand(LCD_LINE2_DDRAM_ADDRESS(i));
     e66:	8d 2d       	mov	r24, r13
     e68:	80 6c       	ori	r24, 0xC0	; 192
     e6a:	0e 94 d1 0b 	call	0x17a2	; 0x17a2 <LCD_SendCommand>
		if(i==7)
     e6e:	87 e0       	ldi	r24, 0x07	; 7
     e70:	d8 12       	cpse	r13, r24
     e72:	08 c0       	rjmp	.+16     	; 0xe84 <User_CheckAmount+0x5e>
		{
			au8_EnteredAmount[i]='\0';
     e74:	e1 e0       	ldi	r30, 0x01	; 1
     e76:	f0 e0       	ldi	r31, 0x00	; 0
     e78:	ec 0f       	add	r30, r28
     e7a:	fd 1f       	adc	r31, r29
     e7c:	ed 0d       	add	r30, r13
     e7e:	f1 1d       	adc	r31, r1
     e80:	10 82       	st	Z, r1
			break;
     e82:	4d c0       	rjmp	.+154    	; 0xf1e <User_CheckAmount+0xf8>
		}
		KEYPAD_MustPressed(&au8_EnteredAmount[i]);
     e84:	0d 2d       	mov	r16, r13
     e86:	10 e0       	ldi	r17, 0x00	; 0
     e88:	81 e0       	ldi	r24, 0x01	; 1
     e8a:	90 e0       	ldi	r25, 0x00	; 0
     e8c:	8c 0f       	add	r24, r28
     e8e:	9d 1f       	adc	r25, r29
     e90:	80 0f       	add	r24, r16
     e92:	91 1f       	adc	r25, r17
     e94:	0e 94 c4 0b 	call	0x1788	; 0x1788 <KEYPAD_MustPressed>
		while(1)
		{
			uint8_t u8_Key;
			KEYPAD_ReadKey(&u8_Key);
     e98:	ce 01       	movw	r24, r28
     e9a:	0d 96       	adiw	r24, 0x0d	; 13
     e9c:	0e 94 4b 0b 	call	0x1696	; 0x1696 <KEYPAD_ReadKey>
			if(u8_Key!=au8_EnteredAmount[i])
     ea0:	e1 e0       	ldi	r30, 0x01	; 1
     ea2:	f0 e0       	ldi	r31, 0x00	; 0
     ea4:	ec 0f       	add	r30, r28
     ea6:	fd 1f       	adc	r31, r29
     ea8:	e0 0f       	add	r30, r16
     eaa:	f1 1f       	adc	r31, r17
     eac:	80 81       	ld	r24, Z
     eae:	9d 85       	ldd	r25, Y+13	; 0x0d
     eb0:	89 17       	cp	r24, r25
     eb2:	91 f3       	breq	.-28     	; 0xe98 <User_CheckAmount+0x72>
			{
				break;
			}
		}
		if(au8_EnteredAmount[i]=='*')
     eb4:	8a 32       	cpi	r24, 0x2A	; 42
     eb6:	41 f4       	brne	.+16     	; 0xec8 <User_CheckAmount+0xa2>
		{
			au8_EnteredAmount[i]='.';
     eb8:	e1 e0       	ldi	r30, 0x01	; 1
     eba:	f0 e0       	ldi	r31, 0x00	; 0
     ebc:	ec 0f       	add	r30, r28
     ebe:	fd 1f       	adc	r31, r29
     ec0:	e0 0f       	add	r30, r16
     ec2:	f1 1f       	adc	r31, r17
     ec4:	8e e2       	ldi	r24, 0x2E	; 46
     ec6:	80 83       	st	Z, r24
		}
		
		LCD_SendData(au8_EnteredAmount[i]);
     ec8:	e1 e0       	ldi	r30, 0x01	; 1
     eca:	f0 e0       	ldi	r31, 0x00	; 0
     ecc:	ec 0f       	add	r30, r28
     ece:	fd 1f       	adc	r31, r29
     ed0:	e0 0f       	add	r30, r16
     ed2:	f1 1f       	adc	r31, r17
     ed4:	80 81       	ld	r24, Z
     ed6:	0e 94 9e 0d 	call	0x1b3c	; 0x1b3c <LCD_SendData>
		if(i==4)
     eda:	e4 e0       	ldi	r30, 0x04	; 4
     edc:	de 12       	cpse	r13, r30
     ede:	0c c0       	rjmp	.+24     	; 0xef8 <User_CheckAmount+0xd2>
		{
			if(au8_EnteredAmount[i]!='.')
     ee0:	e1 e0       	ldi	r30, 0x01	; 1
     ee2:	f0 e0       	ldi	r31, 0x00	; 0
     ee4:	ec 0f       	add	r30, r28
     ee6:	fd 1f       	adc	r31, r29
     ee8:	e0 0f       	add	r30, r16
     eea:	f1 1f       	adc	r31, r17
     eec:	80 81       	ld	r24, Z
     eee:	8e 32       	cpi	r24, 0x2E	; 46
     ef0:	89 f0       	breq	.+34     	; 0xf14 <User_CheckAmount+0xee>
			{
				*AmountState=ERROR_FORMAT;
     ef2:	f7 01       	movw	r30, r14
     ef4:	10 82       	st	Z, r1
				return;
     ef6:	53 c0       	rjmp	.+166    	; 0xf9e <User_CheckAmount+0x178>
			}
		}
		else
		{
			if((au8_EnteredAmount[i]=='.') || (au8_EnteredAmount[i]=='#'))
     ef8:	e1 e0       	ldi	r30, 0x01	; 1
     efa:	f0 e0       	ldi	r31, 0x00	; 0
     efc:	ec 0f       	add	r30, r28
     efe:	fd 1f       	adc	r31, r29
     f00:	e0 0f       	add	r30, r16
     f02:	f1 1f       	adc	r31, r17
     f04:	80 81       	ld	r24, Z
     f06:	8e 32       	cpi	r24, 0x2E	; 46
     f08:	11 f0       	breq	.+4      	; 0xf0e <User_CheckAmount+0xe8>
     f0a:	83 32       	cpi	r24, 0x23	; 35
     f0c:	19 f4       	brne	.+6      	; 0xf14 <User_CheckAmount+0xee>
			{
				*AmountState=ERROR_FORMAT;
     f0e:	f7 01       	movw	r30, r14
     f10:	10 82       	st	Z, r1
				return;
     f12:	45 c0       	rjmp	.+138    	; 0xf9e <User_CheckAmount+0x178>
	LCD_SendCommand(LCD_CLEAR_DISPALY);
	LCD_SendCommand(LCD_LINE1_DDRAM_ADDRESS(0));
	LCD_SendString((ptr_int8_t) "Enter Amount");
	
	//2-read amount from keypad till enter 7 numbers
	for(uint8_t i=0;i<AMOUNT_LENGTH;i++)
     f14:	d3 94       	inc	r13
     f16:	f7 e0       	ldi	r31, 0x07	; 7
     f18:	fd 15       	cp	r31, r13
     f1a:	08 f0       	brcs	.+2      	; 0xf1e <User_CheckAmount+0xf8>
     f1c:	a4 cf       	rjmp	.-184    	; 0xe66 <User_CheckAmount+0x40>
			}
		}
	}
	
	//3- Convert from string to float
	f32_EnteredAmount=stof(au8_EnteredAmount);
     f1e:	ce 01       	movw	r24, r28
     f20:	01 96       	adiw	r24, 0x01	; 1
     f22:	0e 94 0c 05 	call	0xa18	; 0xa18 <stof>
     f26:	60 93 b0 04 	sts	0x04B0, r22	; 0x8004b0 <f32_EnteredAmount>
     f2a:	70 93 b1 04 	sts	0x04B1, r23	; 0x8004b1 <f32_EnteredAmount+0x1>
     f2e:	80 93 b2 04 	sts	0x04B2, r24	; 0x8004b2 <f32_EnteredAmount+0x2>
     f32:	90 93 b3 04 	sts	0x04B3, r25	; 0x8004b3 <f32_EnteredAmount+0x3>
	
	//4-Read Max Amount
	EEPROM_ReadBytes(EEPROM_CH_0,MEMORY_BLOCK_2,0x0,(ptr_uint8_t) &f32_MaxAmount,sizeof(f32_t));
     f36:	04 e0       	ldi	r16, 0x04	; 4
     f38:	9e 01       	movw	r18, r28
     f3a:	27 5f       	subi	r18, 0xF7	; 247
     f3c:	3f 4f       	sbci	r19, 0xFF	; 255
     f3e:	40 e0       	ldi	r20, 0x00	; 0
     f40:	62 ea       	ldi	r22, 0xA2	; 162
     f42:	81 e0       	ldi	r24, 0x01	; 1
     f44:	0e 94 8f 0a 	call	0x151e	; 0x151e <EEPROM_ReadBytes>
	
	//5-check if the entered Amount >max amount (Read EEPROM)
	//then update AmountState=EXCEED_MAX_AMOUNT, print on LCD notification message and return
	//else go t0 step 6
	
	if(f32_EnteredAmount>f32_MaxAmount)
     f48:	80 90 b0 04 	lds	r8, 0x04B0	; 0x8004b0 <f32_EnteredAmount>
     f4c:	90 90 b1 04 	lds	r9, 0x04B1	; 0x8004b1 <f32_EnteredAmount+0x1>
     f50:	a0 90 b2 04 	lds	r10, 0x04B2	; 0x8004b2 <f32_EnteredAmount+0x2>
     f54:	b0 90 b3 04 	lds	r11, 0x04B3	; 0x8004b3 <f32_EnteredAmount+0x3>
     f58:	29 85       	ldd	r18, Y+9	; 0x09
     f5a:	3a 85       	ldd	r19, Y+10	; 0x0a
     f5c:	4b 85       	ldd	r20, Y+11	; 0x0b
     f5e:	5c 85       	ldd	r21, Y+12	; 0x0c
     f60:	c5 01       	movw	r24, r10
     f62:	b4 01       	movw	r22, r8
     f64:	0e 94 8c 15 	call	0x2b18	; 0x2b18 <__gesf2>
     f68:	18 16       	cp	r1, r24
     f6a:	24 f4       	brge	.+8      	; 0xf74 <User_CheckAmount+0x14e>
	{
		*AmountState=EXCEED_MAX_AMOUNT;
     f6c:	81 e0       	ldi	r24, 0x01	; 1
     f6e:	f7 01       	movw	r30, r14
     f70:	80 83       	st	Z, r24
     f72:	15 c0       	rjmp	.+42     	; 0xf9e <User_CheckAmount+0x178>
	}
	else if(f32_EnteredAmount>ST_CurrrentCardDATA.balance)
     f74:	20 91 9c 04 	lds	r18, 0x049C	; 0x80049c <ST_CurrrentCardDATA>
     f78:	30 91 9d 04 	lds	r19, 0x049D	; 0x80049d <ST_CurrrentCardDATA+0x1>
     f7c:	40 91 9e 04 	lds	r20, 0x049E	; 0x80049e <ST_CurrrentCardDATA+0x2>
     f80:	50 91 9f 04 	lds	r21, 0x049F	; 0x80049f <ST_CurrrentCardDATA+0x3>
     f84:	c5 01       	movw	r24, r10
     f86:	b4 01       	movw	r22, r8
     f88:	0e 94 8c 15 	call	0x2b18	; 0x2b18 <__gesf2>
     f8c:	18 16       	cp	r1, r24
     f8e:	24 f4       	brge	.+8      	; 0xf98 <User_CheckAmount+0x172>
	{
		*AmountState=INSUFFICIENT_FUND;
     f90:	82 e0       	ldi	r24, 0x02	; 2
     f92:	f7 01       	movw	r30, r14
     f94:	80 83       	st	Z, r24
     f96:	03 c0       	rjmp	.+6      	; 0xf9e <User_CheckAmount+0x178>
	}
	else
	{
		*AmountState=APPROVED;
     f98:	83 e0       	ldi	r24, 0x03	; 3
     f9a:	f7 01       	movw	r30, r14
     f9c:	80 83       	st	Z, r24
	}
	
}
     f9e:	2d 96       	adiw	r28, 0x0d	; 13
     fa0:	0f b6       	in	r0, 0x3f	; 63
     fa2:	f8 94       	cli
     fa4:	de bf       	out	0x3e, r29	; 62
     fa6:	0f be       	out	0x3f, r0	; 63
     fa8:	cd bf       	out	0x3d, r28	; 61
     faa:	df 91       	pop	r29
     fac:	cf 91       	pop	r28
     fae:	1f 91       	pop	r17
     fb0:	0f 91       	pop	r16
     fb2:	ff 90       	pop	r15
     fb4:	ef 90       	pop	r14
     fb6:	df 90       	pop	r13
     fb8:	bf 90       	pop	r11
     fba:	af 90       	pop	r10
     fbc:	9f 90       	pop	r9
     fbe:	8f 90       	pop	r8
     fc0:	08 95       	ret

00000fc2 <display_CheckAmount>:
	LCD_SendString((ptr_int8_t)"2-Display Temp"); //Rehab
	/*pull on keypad until we get a Key Press*/
}

void display_CheckAmount( ptr_uint8_t CheckAmountResult )
{
     fc2:	0f 93       	push	r16
     fc4:	1f 93       	push	r17
     fc6:	cf 93       	push	r28
     fc8:	df 93       	push	r29
     fca:	00 d0       	rcall	.+0      	; 0xfcc <display_CheckAmount+0xa>
     fcc:	00 d0       	rcall	.+0      	; 0xfce <display_CheckAmount+0xc>
     fce:	cd b7       	in	r28, 0x3d	; 61
     fd0:	de b7       	in	r29, 0x3e	; 62
     fd2:	8c 01       	movw	r16, r24
	do{
      if(!PSHBTTN_Status(PORT_A, PIN3))
     fd4:	63 e0       	ldi	r22, 0x03	; 3
     fd6:	80 e0       	ldi	r24, 0x00	; 0
     fd8:	0e 94 e9 09 	call	0x13d2	; 0x13d2 <PSHBTTN_Status>
     fdc:	81 11       	cpse	r24, r1
     fde:	03 c0       	rjmp	.+6      	; 0xfe6 <display_CheckAmount+0x24>
      {
         display_CardRemoved();
     fe0:	0e 94 67 05 	call	0xace	; 0xace <display_CardRemoved>
         return OperationSuccess;
     fe4:	36 c0       	rjmp	.+108    	; 0x1052 <display_CheckAmount+0x90>
      }
		/*get amount from user and check it*/
		User_CheckAmount(CheckAmountResult);
     fe6:	c8 01       	movw	r24, r16
     fe8:	0e 94 13 07 	call	0xe26	; 0xe26 <User_CheckAmount>
		if(*CheckAmountResult == ERROR_FORMAT)
     fec:	f8 01       	movw	r30, r16
     fee:	80 81       	ld	r24, Z
     ff0:	81 11       	cpse	r24, r1
     ff2:	2b c0       	rjmp	.+86     	; 0x104a <display_CheckAmount+0x88>
		{
			LCD_SendCommand(LCD_CLEAR_DISPALY); //Rehab
     ff4:	81 e0       	ldi	r24, 0x01	; 1
     ff6:	0e 94 d1 0b 	call	0x17a2	; 0x17a2 <LCD_SendCommand>
			LCD_SendCommand(LCD_LINE1_DDRAM_ADDRESS(0)); //Rehab
     ffa:	80 e8       	ldi	r24, 0x80	; 128
     ffc:	0e 94 d1 0b 	call	0x17a2	; 0x17a2 <LCD_SendCommand>
			LCD_SendString((ptr_int8_t) "Wrong format");
    1000:	88 eb       	ldi	r24, 0xB8	; 184
    1002:	93 e0       	ldi	r25, 0x03	; 3
    1004:	0e 94 84 0e 	call	0x1d08	; 0x1d08 <LCD_SendString>
			/*Start of Press any key...*/
			LCD_SendCommand(LCD_LINE2_DDRAM_ADDRESS(0)); //Rehab
    1008:	80 ec       	ldi	r24, 0xC0	; 192
    100a:	0e 94 d1 0b 	call	0x17a2	; 0x17a2 <LCD_SendCommand>
			LCD_SendString((ptr_int8_t) "Format: xxxx.xx"); //Rehab
    100e:	85 ec       	ldi	r24, 0xC5	; 197
    1010:	93 e0       	ldi	r25, 0x03	; 3
    1012:	0e 94 84 0e 	call	0x1d08	; 0x1d08 <LCD_SendString>
			for(volatile uint16_t i = 0; i< 500; i++)
    1016:	1c 82       	std	Y+4, r1	; 0x04
    1018:	1b 82       	std	Y+3, r1	; 0x03
    101a:	12 c0       	rjmp	.+36     	; 0x1040 <display_CheckAmount+0x7e>
			{
				for(volatile uint16_t j = 0; j<2666; j++);
    101c:	1a 82       	std	Y+2, r1	; 0x02
    101e:	19 82       	std	Y+1, r1	; 0x01
    1020:	05 c0       	rjmp	.+10     	; 0x102c <display_CheckAmount+0x6a>
    1022:	89 81       	ldd	r24, Y+1	; 0x01
    1024:	9a 81       	ldd	r25, Y+2	; 0x02
    1026:	01 96       	adiw	r24, 0x01	; 1
    1028:	9a 83       	std	Y+2, r25	; 0x02
    102a:	89 83       	std	Y+1, r24	; 0x01
    102c:	89 81       	ldd	r24, Y+1	; 0x01
    102e:	9a 81       	ldd	r25, Y+2	; 0x02
    1030:	8a 36       	cpi	r24, 0x6A	; 106
    1032:	9a 40       	sbci	r25, 0x0A	; 10
    1034:	b0 f3       	brcs	.-20     	; 0x1022 <display_CheckAmount+0x60>
			LCD_SendCommand(LCD_LINE1_DDRAM_ADDRESS(0)); //Rehab
			LCD_SendString((ptr_int8_t) "Wrong format");
			/*Start of Press any key...*/
			LCD_SendCommand(LCD_LINE2_DDRAM_ADDRESS(0)); //Rehab
			LCD_SendString((ptr_int8_t) "Format: xxxx.xx"); //Rehab
			for(volatile uint16_t i = 0; i< 500; i++)
    1036:	8b 81       	ldd	r24, Y+3	; 0x03
    1038:	9c 81       	ldd	r25, Y+4	; 0x04
    103a:	01 96       	adiw	r24, 0x01	; 1
    103c:	9c 83       	std	Y+4, r25	; 0x04
    103e:	8b 83       	std	Y+3, r24	; 0x03
    1040:	8b 81       	ldd	r24, Y+3	; 0x03
    1042:	9c 81       	ldd	r25, Y+4	; 0x04
    1044:	84 3f       	cpi	r24, 0xF4	; 244
    1046:	91 40       	sbci	r25, 0x01	; 1
    1048:	48 f3       	brcs	.-46     	; 0x101c <display_CheckAmount+0x5a>
			{
				for(volatile uint16_t j = 0; j<2666; j++);
			}
		}
	}while(*CheckAmountResult==ERROR_FORMAT);
    104a:	f8 01       	movw	r30, r16
    104c:	80 81       	ld	r24, Z
    104e:	88 23       	and	r24, r24
    1050:	09 f2       	breq	.-126    	; 0xfd4 <display_CheckAmount+0x12>
}
    1052:	0f 90       	pop	r0
    1054:	0f 90       	pop	r0
    1056:	0f 90       	pop	r0
    1058:	0f 90       	pop	r0
    105a:	df 91       	pop	r29
    105c:	cf 91       	pop	r28
    105e:	1f 91       	pop	r17
    1060:	0f 91       	pop	r16
    1062:	08 95       	ret

00001064 <User_UpdateBalance>:
	}
	
}

uint8_t User_UpdateBalance(void)
{
    1064:	cf 93       	push	r28
    1066:	df 93       	push	r29
	//1-update the balance
	ST_CurrrentCardDATA.balance -= f32_EnteredAmount;
    1068:	cc e9       	ldi	r28, 0x9C	; 156
    106a:	d4 e0       	ldi	r29, 0x04	; 4
    106c:	20 91 b0 04 	lds	r18, 0x04B0	; 0x8004b0 <f32_EnteredAmount>
    1070:	30 91 b1 04 	lds	r19, 0x04B1	; 0x8004b1 <f32_EnteredAmount+0x1>
    1074:	40 91 b2 04 	lds	r20, 0x04B2	; 0x8004b2 <f32_EnteredAmount+0x2>
    1078:	50 91 b3 04 	lds	r21, 0x04B3	; 0x8004b3 <f32_EnteredAmount+0x3>
    107c:	68 81       	ld	r22, Y
    107e:	79 81       	ldd	r23, Y+1	; 0x01
    1080:	8a 81       	ldd	r24, Y+2	; 0x02
    1082:	9b 81       	ldd	r25, Y+3	; 0x03
    1084:	0e 94 c7 13 	call	0x278e	; 0x278e <__subsf3>
    1088:	68 83       	st	Y, r22
    108a:	79 83       	std	Y+1, r23	; 0x01
    108c:	8a 83       	std	Y+2, r24	; 0x02
    108e:	9b 83       	std	Y+3, r25	; 0x03
	//2-update the Server by the new balance(write EEPROM)
	/*uint8_t u8_StartAddress=ST_CurrrentCardDATA.index+10;
	EEPROM_WriteBytes(EEPROM_CH_0, MEMORY_BLOCK_4, u8_StartAddress, (uint8_t *)&ST_CurrrentCardDATA.balance,sizeof(f32_t));*/
	
   return OperationSuccess;
    1090:	80 e0       	ldi	r24, 0x00	; 0
    1092:	df 91       	pop	r29
    1094:	cf 91       	pop	r28
    1096:	08 95       	ret

00001098 <display_CheckAmountApproved>:
		}
	}while(*CheckAmountResult==ERROR_FORMAT);
}

void display_CheckAmountApproved( uint8_t Dummy, ptr_uint8_t ErrRetVal )
{
    1098:	ef 92       	push	r14
    109a:	ff 92       	push	r15
    109c:	0f 93       	push	r16
    109e:	cf 93       	push	r28
    10a0:	df 93       	push	r29
    10a2:	cd b7       	in	r28, 0x3d	; 61
    10a4:	de b7       	in	r29, 0x3e	; 62
    10a6:	2d 97       	sbiw	r28, 0x0d	; 13
    10a8:	0f b6       	in	r0, 0x3f	; 63
    10aa:	f8 94       	cli
    10ac:	de bf       	out	0x3e, r29	; 62
    10ae:	0f be       	out	0x3f, r0	; 63
    10b0:	cd bf       	out	0x3d, r28	; 61
    10b2:	7b 01       	movw	r14, r22
	uint8_t au8_UpdatedBalance[10];
   if(!PSHBTTN_Status(PORT_A, PIN3))
    10b4:	63 e0       	ldi	r22, 0x03	; 3
    10b6:	80 e0       	ldi	r24, 0x00	; 0
    10b8:	0e 94 e9 09 	call	0x13d2	; 0x13d2 <PSHBTTN_Status>
    10bc:	81 11       	cpse	r24, r1
    10be:	03 c0       	rjmp	.+6      	; 0x10c6 <display_CheckAmountApproved+0x2e>
   {
      display_CardRemoved();
    10c0:	0e 94 67 05 	call	0xace	; 0xace <display_CardRemoved>
    10c4:	5e c0       	rjmp	.+188    	; 0x1182 <display_CheckAmountApproved+0xea>
      return OperationSuccess;
   }
	LCD_SendCommand(LCD_CLEAR_DISPALY); //Rehab
    10c6:	81 e0       	ldi	r24, 0x01	; 1
    10c8:	0e 94 d1 0b 	call	0x17a2	; 0x17a2 <LCD_SendCommand>
	LCD_SendCommand(LCD_LINE1_DDRAM_ADDRESS(0)); //Rehab
    10cc:	80 e8       	ldi	r24, 0x80	; 128
    10ce:	0e 94 d1 0b 	call	0x17a2	; 0x17a2 <LCD_SendCommand>
	LCD_SendString((ptr_int8_t) "APPROVED"); //Rehab
    10d2:	85 ed       	ldi	r24, 0xD5	; 213
    10d4:	93 e0       	ldi	r25, 0x03	; 3
    10d6:	0e 94 84 0e 	call	0x1d08	; 0x1d08 <LCD_SendString>
	/*End of Press any key...*/
   User_UpdateBalance();//Rehab
    10da:	0e 94 32 08 	call	0x1064	; 0x1064 <User_UpdateBalance>
	MOTOR_START(); //Marco
    10de:	0e 94 f8 0e 	call	0x1df0	; 0x1df0 <MOTOR_START>
	//						TIM_Delay_MS(1000);//Adel
	for(volatile uint8_t k=0; k<255;k++)
    10e2:	1d 86       	std	Y+13, r1	; 0x0d
    10e4:	13 c0       	rjmp	.+38     	; 0x110c <display_CheckAmountApproved+0x74>
	for(volatile uint8_t i=0; i<255;i++)
    10e6:	1c 86       	std	Y+12, r1	; 0x0c
    10e8:	0b c0       	rjmp	.+22     	; 0x1100 <display_CheckAmountApproved+0x68>
	for(volatile uint8_t l=0; l<11;l++);
    10ea:	1b 86       	std	Y+11, r1	; 0x0b
    10ec:	03 c0       	rjmp	.+6      	; 0x10f4 <display_CheckAmountApproved+0x5c>
    10ee:	8b 85       	ldd	r24, Y+11	; 0x0b
    10f0:	8f 5f       	subi	r24, 0xFF	; 255
    10f2:	8b 87       	std	Y+11, r24	; 0x0b
    10f4:	8b 85       	ldd	r24, Y+11	; 0x0b
    10f6:	8b 30       	cpi	r24, 0x0B	; 11
    10f8:	d0 f3       	brcs	.-12     	; 0x10ee <display_CheckAmountApproved+0x56>
	/*End of Press any key...*/
   User_UpdateBalance();//Rehab
	MOTOR_START(); //Marco
	//						TIM_Delay_MS(1000);//Adel
	for(volatile uint8_t k=0; k<255;k++)
	for(volatile uint8_t i=0; i<255;i++)
    10fa:	8c 85       	ldd	r24, Y+12	; 0x0c
    10fc:	8f 5f       	subi	r24, 0xFF	; 255
    10fe:	8c 87       	std	Y+12, r24	; 0x0c
    1100:	8c 85       	ldd	r24, Y+12	; 0x0c
    1102:	8f 3f       	cpi	r24, 0xFF	; 255
    1104:	91 f7       	brne	.-28     	; 0x10ea <display_CheckAmountApproved+0x52>
	LCD_SendString((ptr_int8_t) "APPROVED"); //Rehab
	/*End of Press any key...*/
   User_UpdateBalance();//Rehab
	MOTOR_START(); //Marco
	//						TIM_Delay_MS(1000);//Adel
	for(volatile uint8_t k=0; k<255;k++)
    1106:	8d 85       	ldd	r24, Y+13	; 0x0d
    1108:	8f 5f       	subi	r24, 0xFF	; 255
    110a:	8d 87       	std	Y+13, r24	; 0x0d
    110c:	8d 85       	ldd	r24, Y+13	; 0x0d
    110e:	8f 3f       	cpi	r24, 0xFF	; 255
    1110:	51 f7       	brne	.-44     	; 0x10e6 <display_CheckAmountApproved+0x4e>
	for(volatile uint8_t i=0; i<255;i++)
	for(volatile uint8_t l=0; l<11;l++);
	MOTOR_STOP();//Marco
    1112:	0e 94 ff 0e 	call	0x1dfe	; 0x1dfe <MOTOR_STOP>
	ftos(ST_CurrrentCardDATA.balance, au8_UpdatedBalance, 2);
    1116:	60 91 9c 04 	lds	r22, 0x049C	; 0x80049c <ST_CurrrentCardDATA>
    111a:	70 91 9d 04 	lds	r23, 0x049D	; 0x80049d <ST_CurrrentCardDATA+0x1>
    111e:	80 91 9e 04 	lds	r24, 0x049E	; 0x80049e <ST_CurrrentCardDATA+0x2>
    1122:	90 91 9f 04 	lds	r25, 0x049F	; 0x80049f <ST_CurrrentCardDATA+0x3>
    1126:	22 e0       	ldi	r18, 0x02	; 2
    1128:	30 e0       	ldi	r19, 0x00	; 0
    112a:	ae 01       	movw	r20, r28
    112c:	4f 5f       	subi	r20, 0xFF	; 255
    112e:	5f 4f       	sbci	r21, 0xFF	; 255
    1130:	0e 94 01 01 	call	0x202	; 0x202 <ftos>
	LCD_SendCommand(LCD_CLEAR_DISPALY); //Rehab
    1134:	81 e0       	ldi	r24, 0x01	; 1
    1136:	0e 94 d1 0b 	call	0x17a2	; 0x17a2 <LCD_SendCommand>
	LCD_SendCommand(LCD_LINE1_DDRAM_ADDRESS(0)); //Rehab
    113a:	80 e8       	ldi	r24, 0x80	; 128
    113c:	0e 94 d1 0b 	call	0x17a2	; 0x17a2 <LCD_SendCommand>
	LCD_SendString((ptr_int8_t) "Balance: "); //Rehab
    1140:	8e ed       	ldi	r24, 0xDE	; 222
    1142:	93 e0       	ldi	r25, 0x03	; 3
    1144:	0e 94 84 0e 	call	0x1d08	; 0x1d08 <LCD_SendString>
	LCD_SendString(au8_UpdatedBalance);
    1148:	ce 01       	movw	r24, r28
    114a:	01 96       	adiw	r24, 0x01	; 1
    114c:	0e 94 84 0e 	call	0x1d08	; 0x1d08 <LCD_SendString>
	/*Start of Press any key...*/
	LCD_SendCommand(LCD_LINE2_DDRAM_ADDRESS(0)); //Rehab
    1150:	80 ec       	ldi	r24, 0xC0	; 192
    1152:	0e 94 d1 0b 	call	0x17a2	; 0x17a2 <LCD_SendCommand>
	LCD_SendString((ptr_int8_t) "Remove Card..."); //Rehab
    1156:	88 ee       	ldi	r24, 0xE8	; 232
    1158:	93 e0       	ldi	r25, 0x03	; 3
    115a:	0e 94 84 0e 	call	0x1d08	; 0x1d08 <LCD_SendString>
	while(PSHBTTN_Status(PORT_A, PIN3))
    115e:	63 e0       	ldi	r22, 0x03	; 3
    1160:	80 e0       	ldi	r24, 0x00	; 0
    1162:	0e 94 e9 09 	call	0x13d2	; 0x13d2 <PSHBTTN_Status>
    1166:	81 11       	cpse	r24, r1
    1168:	fa cf       	rjmp	.-12     	; 0x115e <display_CheckAmountApproved+0xc6>
	{

	}
   uint8_t u8_StartAddress=ST_CurrrentCardDATA.index+10;
    116a:	40 91 af 04 	lds	r20, 0x04AF	; 0x8004af <ST_CurrrentCardDATA+0x13>
    116e:	46 5f       	subi	r20, 0xF6	; 246
	EEPROM_WriteBytes(EEPROM_CH_0, MEMORY_BLOCK_4, u8_StartAddress, (uint8_t *)&ST_CurrrentCardDATA.balance,sizeof(f32_t));
    1170:	04 e0       	ldi	r16, 0x04	; 4
    1172:	2c e9       	ldi	r18, 0x9C	; 156
    1174:	34 e0       	ldi	r19, 0x04	; 4
    1176:	66 ea       	ldi	r22, 0xA6	; 166
    1178:	81 e0       	ldi	r24, 0x01	; 1
    117a:	0e 94 bf 0a 	call	0x157e	; 0x157e <EEPROM_WriteBytes>
	while(Dummy != 0)
	{
		KEYPAD_ReadKey(&Dummy);//Rehab
	}*/

	*ErrRetVal = OperationSuccess;
    117e:	f7 01       	movw	r30, r14
    1180:	10 82       	st	Z, r1
}
    1182:	2d 96       	adiw	r28, 0x0d	; 13
    1184:	0f b6       	in	r0, 0x3f	; 63
    1186:	f8 94       	cli
    1188:	de bf       	out	0x3e, r29	; 62
    118a:	0f be       	out	0x3f, r0	; 63
    118c:	cd bf       	out	0x3d, r28	; 61
    118e:	df 91       	pop	r29
    1190:	cf 91       	pop	r28
    1192:	0f 91       	pop	r16
    1194:	ff 90       	pop	r15
    1196:	ef 90       	pop	r14
    1198:	08 95       	ret

0000119a <USER_Interface>:
	/*End of Press any key...*/
	*ErrRetVal = OperationSuccess;
}

uint8_t USER_Interface()
{
    119a:	1f 93       	push	r17
    119c:	cf 93       	push	r28
    119e:	df 93       	push	r29
    11a0:	00 d0       	rcall	.+0      	; 0x11a2 <USER_Interface+0x8>
    11a2:	00 d0       	rcall	.+0      	; 0x11a4 <USER_Interface+0xa>
    11a4:	1f 92       	push	r1
    11a6:	cd b7       	in	r28, 0x3d	; 61
    11a8:	de b7       	in	r29, 0x3e	; 62
	uint8_t ErrRetVal = OperationStarted;
    11aa:	8f ef       	ldi	r24, 0xFF	; 255
    11ac:	89 83       	std	Y+1, r24	; 0x01
while(1)
{
	uint8_t PressedKey = 0;
    11ae:	1d 82       	std	Y+5, r1	; 0x05
	uint8_t AuthenticationResult = 0;
    11b0:	1c 82       	std	Y+4, r1	; 0x04
	uint8_t CheckAmountResult = 0;
    11b2:	1b 82       	std	Y+3, r1	; 0x03
	uint8_t CounterWrongPinEntries = 0;
	uint8_t Dummy = 0;
    11b4:	1a 82       	std	Y+2, r1	; 0x02
	uint8_t u8_IsExist = NOTEXIST;
		
	display_ShowMenu();
    11b6:	0e 94 8d 05 	call	0xb1a	; 0xb1a <display_ShowMenu>

	while(PressedKey==0)
    11ba:	04 c0       	rjmp	.+8      	; 0x11c4 <USER_Interface+0x2a>
	{
		KEYPAD_ReadKey(&PressedKey); //Rehab
    11bc:	ce 01       	movw	r24, r28
    11be:	05 96       	adiw	r24, 0x05	; 5
    11c0:	0e 94 4b 0b 	call	0x1696	; 0x1696 <KEYPAD_ReadKey>
	uint8_t Dummy = 0;
	uint8_t u8_IsExist = NOTEXIST;
		
	display_ShowMenu();

	while(PressedKey==0)
    11c4:	8d 81       	ldd	r24, Y+5	; 0x05
    11c6:	88 23       	and	r24, r24
    11c8:	c9 f3       	breq	.-14     	; 0x11bc <USER_Interface+0x22>
	{
		KEYPAD_ReadKey(&PressedKey); //Rehab
	}
	/*Clear LCD and set cursor to the first position in the top row*/
	LCD_SendCommand(LCD_CLEAR_DISPALY); //Rehab
    11ca:	81 e0       	ldi	r24, 0x01	; 1
    11cc:	0e 94 d1 0b 	call	0x17a2	; 0x17a2 <LCD_SendCommand>
	LCD_SendCommand(LCD_LINE1_DDRAM_ADDRESS(0)); //Rehab
    11d0:	80 e8       	ldi	r24, 0x80	; 128
    11d2:	0e 94 d1 0b 	call	0x17a2	; 0x17a2 <LCD_SendCommand>
	/*check the pressed key*/
	if(PressedKey=='1')
    11d6:	8d 81       	ldd	r24, Y+5	; 0x05
    11d8:	81 33       	cpi	r24, 0x31	; 49
    11da:	09 f0       	breq	.+2      	; 0x11de <USER_Interface+0x44>
    11dc:	b0 c0       	rjmp	.+352    	; 0x133e <USER_Interface+0x1a4>
    11de:	04 c0       	rjmp	.+8      	; 0x11e8 <USER_Interface+0x4e>
	{
		while(PressedKey == '1')
		{
			KEYPAD_ReadKey(&PressedKey);//Rehab
    11e0:	ce 01       	movw	r24, r28
    11e2:	05 96       	adiw	r24, 0x05	; 5
    11e4:	0e 94 4b 0b 	call	0x1696	; 0x1696 <KEYPAD_ReadKey>
	LCD_SendCommand(LCD_CLEAR_DISPALY); //Rehab
	LCD_SendCommand(LCD_LINE1_DDRAM_ADDRESS(0)); //Rehab
	/*check the pressed key*/
	if(PressedKey=='1')
	{
		while(PressedKey == '1')
    11e8:	8d 81       	ldd	r24, Y+5	; 0x05
    11ea:	81 33       	cpi	r24, 0x31	; 49
    11ec:	c9 f3       	breq	.-14     	; 0x11e0 <USER_Interface+0x46>
		{
			KEYPAD_ReadKey(&PressedKey);//Rehab
		}
			
		/*Hold program until card is inserted*/
		display_WaitingData();
    11ee:	0e 94 17 06 	call	0xc2e	; 0xc2e <display_WaitingData>

		u8_IsExist = USER_GetServerData();
    11f2:	0e 94 3b 06 	call	0xc76	; 0xc76 <USER_GetServerData>
			
		if(u8_IsExist==EXIST)//Essam
    11f6:	81 30       	cpi	r24, 0x01	; 1
    11f8:	09 f0       	breq	.+2      	; 0x11fc <USER_Interface+0x62>
    11fa:	95 c0       	rjmp	.+298    	; 0x1326 <USER_Interface+0x18c>
    11fc:	10 e0       	ldi	r17, 0x00	; 0
		{
			do{
            if(!PSHBTTN_Status(PORT_A, PIN3))
    11fe:	63 e0       	ldi	r22, 0x03	; 3
    1200:	80 e0       	ldi	r24, 0x00	; 0
    1202:	0e 94 e9 09 	call	0x13d2	; 0x13d2 <PSHBTTN_Status>
    1206:	88 23       	and	r24, r24
    1208:	09 f4       	brne	.+2      	; 0x120c <USER_Interface+0x72>
    120a:	bc c0       	rjmp	.+376    	; 0x1384 <USER_Interface+0x1ea>
            {
               display_CardRemoved();
               return OperationSuccess;
            }                  
				/*get PIN from user For Authentication*/
				User_Authenticate(&AuthenticationResult); //Rehab
    120c:	ce 01       	movw	r24, r28
    120e:	04 96       	adiw	r24, 0x04	; 4
    1210:	0e 94 b0 06 	call	0xd60	; 0xd60 <User_Authenticate>
				if(AuthenticationResult == CORRECT_PIN)
    1214:	8c 81       	ldd	r24, Y+4	; 0x04
    1216:	81 30       	cpi	r24, 0x01	; 1
    1218:	f1 f5       	brne	.+124    	; 0x1296 <USER_Interface+0xfc>
				{
					CounterWrongPinEntries=0;
					/*pull on Get amount until user enters the amount in a right format*/
					display_CheckAmount(&CheckAmountResult);
    121a:	ce 01       	movw	r24, r28
    121c:	03 96       	adiw	r24, 0x03	; 3
    121e:	0e 94 e1 07 	call	0xfc2	; 0xfc2 <display_CheckAmount>


					if(CheckAmountResult==APPROVED)
    1222:	8b 81       	ldd	r24, Y+3	; 0x03
    1224:	83 30       	cpi	r24, 0x03	; 3
    1226:	41 f4       	brne	.+16     	; 0x1238 <USER_Interface+0x9e>
					{
						display_CheckAmountApproved(Dummy, &ErrRetVal);
    1228:	be 01       	movw	r22, r28
    122a:	6f 5f       	subi	r22, 0xFF	; 255
    122c:	7f 4f       	sbci	r23, 0xFF	; 255
    122e:	8a 81       	ldd	r24, Y+2	; 0x02
    1230:	0e 94 4c 08 	call	0x1098	; 0x1098 <display_CheckAmountApproved>
            }                  
				/*get PIN from user For Authentication*/
				User_Authenticate(&AuthenticationResult); //Rehab
				if(AuthenticationResult == CORRECT_PIN)
				{
					CounterWrongPinEntries=0;
    1234:	10 e0       	ldi	r17, 0x00	; 0
    1236:	72 c0       	rjmp	.+228    	; 0x131c <USER_Interface+0x182>
					if(CheckAmountResult==APPROVED)
					{
						display_CheckAmountApproved(Dummy, &ErrRetVal);

					}
					else if(CheckAmountResult==INSUFFICIENT_FUND)
    1238:	82 30       	cpi	r24, 0x02	; 2
    123a:	41 f4       	brne	.+16     	; 0x124c <USER_Interface+0xb2>
					{
						display_CheckAmountInsufficient(Dummy, &ErrRetVal);
    123c:	be 01       	movw	r22, r28
    123e:	6f 5f       	subi	r22, 0xFF	; 255
    1240:	7f 4f       	sbci	r23, 0xFF	; 255
    1242:	8a 81       	ldd	r24, Y+2	; 0x02
    1244:	0e 94 cd 05 	call	0xb9a	; 0xb9a <display_CheckAmountInsufficient>
            }                  
				/*get PIN from user For Authentication*/
				User_Authenticate(&AuthenticationResult); //Rehab
				if(AuthenticationResult == CORRECT_PIN)
				{
					CounterWrongPinEntries=0;
    1248:	10 e0       	ldi	r17, 0x00	; 0
    124a:	68 c0       	rjmp	.+208    	; 0x131c <USER_Interface+0x182>
					else if(CheckAmountResult==INSUFFICIENT_FUND)
					{
						display_CheckAmountInsufficient(Dummy, &ErrRetVal);

					}
					else if(CheckAmountResult==EXCEED_MAX_AMOUNT)
    124c:	81 30       	cpi	r24, 0x01	; 1
    124e:	f9 f4       	brne	.+62     	; 0x128e <USER_Interface+0xf4>
					{
						LCD_SendCommand(LCD_CLEAR_DISPALY); //Rehab
    1250:	0e 94 d1 0b 	call	0x17a2	; 0x17a2 <LCD_SendCommand>
						LCD_SendCommand(LCD_LINE1_DDRAM_ADDRESS(0)); //Rehab
    1254:	80 e8       	ldi	r24, 0x80	; 128
    1256:	0e 94 d1 0b 	call	0x17a2	; 0x17a2 <LCD_SendCommand>
						LCD_SendString((ptr_int8_t) "Max Val Exceeded"); //Rehab
    125a:	87 ef       	ldi	r24, 0xF7	; 247
    125c:	93 e0       	ldi	r25, 0x03	; 3
    125e:	0e 94 84 0e 	call	0x1d08	; 0x1d08 <LCD_SendString>
						/*Start of Press any key...*/
						LCD_SendCommand(LCD_LINE2_DDRAM_ADDRESS(0)); //Rehab
    1262:	80 ec       	ldi	r24, 0xC0	; 192
    1264:	0e 94 d1 0b 	call	0x17a2	; 0x17a2 <LCD_SendCommand>
						LCD_SendString((ptr_int8_t) "Press any key..."); //Rehab
    1268:	80 e3       	ldi	r24, 0x30	; 48
    126a:	93 e0       	ldi	r25, 0x03	; 3
    126c:	0e 94 84 0e 	call	0x1d08	; 0x1d08 <LCD_SendString>
						KEYPAD_MustPressed(&Dummy);//Rehab
    1270:	ce 01       	movw	r24, r28
    1272:	02 96       	adiw	r24, 0x02	; 2
    1274:	0e 94 c4 0b 	call	0x1788	; 0x1788 <KEYPAD_MustPressed>
						while(Dummy != 0)
    1278:	04 c0       	rjmp	.+8      	; 0x1282 <USER_Interface+0xe8>
						{
							KEYPAD_ReadKey(&Dummy);//Rehab
    127a:	ce 01       	movw	r24, r28
    127c:	02 96       	adiw	r24, 0x02	; 2
    127e:	0e 94 4b 0b 	call	0x1696	; 0x1696 <KEYPAD_ReadKey>
						LCD_SendString((ptr_int8_t) "Max Val Exceeded"); //Rehab
						/*Start of Press any key...*/
						LCD_SendCommand(LCD_LINE2_DDRAM_ADDRESS(0)); //Rehab
						LCD_SendString((ptr_int8_t) "Press any key..."); //Rehab
						KEYPAD_MustPressed(&Dummy);//Rehab
						while(Dummy != 0)
    1282:	8a 81       	ldd	r24, Y+2	; 0x02
    1284:	81 11       	cpse	r24, r1
    1286:	f9 cf       	rjmp	.-14     	; 0x127a <USER_Interface+0xe0>
						{
							KEYPAD_ReadKey(&Dummy);//Rehab
						}
						/*End of Press any key...*/
						ErrRetVal = OperationSuccess;
    1288:	19 82       	std	Y+1, r1	; 0x01
            }                  
				/*get PIN from user For Authentication*/
				User_Authenticate(&AuthenticationResult); //Rehab
				if(AuthenticationResult == CORRECT_PIN)
				{
					CounterWrongPinEntries=0;
    128a:	10 e0       	ldi	r17, 0x00	; 0
    128c:	47 c0       	rjmp	.+142    	; 0x131c <USER_Interface+0x182>
						/*End of Press any key...*/
						ErrRetVal = OperationSuccess;
					}
					else
					{
						ErrRetVal=OperationFailed;
    128e:	81 e0       	ldi	r24, 0x01	; 1
    1290:	89 83       	std	Y+1, r24	; 0x01
            }                  
				/*get PIN from user For Authentication*/
				User_Authenticate(&AuthenticationResult); //Rehab
				if(AuthenticationResult == CORRECT_PIN)
				{
					CounterWrongPinEntries=0;
    1292:	10 e0       	ldi	r17, 0x00	; 0
    1294:	43 c0       	rjmp	.+134    	; 0x131c <USER_Interface+0x182>
					else
					{
						ErrRetVal=OperationFailed;
					}
				}
				else if (AuthenticationResult == WRONG_PIN)
    1296:	81 11       	cpse	r24, r1
    1298:	3f c0       	rjmp	.+126    	; 0x1318 <USER_Interface+0x17e>
				{
					LCD_SendCommand(LCD_CLEAR_DISPALY); //Rehab
    129a:	81 e0       	ldi	r24, 0x01	; 1
    129c:	0e 94 d1 0b 	call	0x17a2	; 0x17a2 <LCD_SendCommand>
					LCD_SendCommand(LCD_LINE1_DDRAM_ADDRESS(0)); //Rehab
    12a0:	80 e8       	ldi	r24, 0x80	; 128
    12a2:	0e 94 d1 0b 	call	0x17a2	; 0x17a2 <LCD_SendCommand>
					CounterWrongPinEntries++;
    12a6:	1f 5f       	subi	r17, 0xFF	; 255
					LCD_SendString((ptr_int8_t) "Wrong PIN"); //Rehab
    12a8:	88 e0       	ldi	r24, 0x08	; 8
    12aa:	94 e0       	ldi	r25, 0x04	; 4
    12ac:	0e 94 84 0e 	call	0x1d08	; 0x1d08 <LCD_SendString>
					/*Start of Press any key...*/
					LCD_SendCommand(LCD_LINE2_DDRAM_ADDRESS(0)); //Rehab
    12b0:	80 ec       	ldi	r24, 0xC0	; 192
    12b2:	0e 94 d1 0b 	call	0x17a2	; 0x17a2 <LCD_SendCommand>
					LCD_SendString((ptr_int8_t) "Press any key..."); //Rehab
    12b6:	80 e3       	ldi	r24, 0x30	; 48
    12b8:	93 e0       	ldi	r25, 0x03	; 3
    12ba:	0e 94 84 0e 	call	0x1d08	; 0x1d08 <LCD_SendString>
					KEYPAD_MustPressed(&Dummy);//Rehab
    12be:	ce 01       	movw	r24, r28
    12c0:	02 96       	adiw	r24, 0x02	; 2
    12c2:	0e 94 c4 0b 	call	0x1788	; 0x1788 <KEYPAD_MustPressed>
					while(Dummy != 0)
    12c6:	04 c0       	rjmp	.+8      	; 0x12d0 <USER_Interface+0x136>
					{
						KEYPAD_ReadKey(&Dummy);//Rehab
    12c8:	ce 01       	movw	r24, r28
    12ca:	02 96       	adiw	r24, 0x02	; 2
    12cc:	0e 94 4b 0b 	call	0x1696	; 0x1696 <KEYPAD_ReadKey>
					LCD_SendString((ptr_int8_t) "Wrong PIN"); //Rehab
					/*Start of Press any key...*/
					LCD_SendCommand(LCD_LINE2_DDRAM_ADDRESS(0)); //Rehab
					LCD_SendString((ptr_int8_t) "Press any key..."); //Rehab
					KEYPAD_MustPressed(&Dummy);//Rehab
					while(Dummy != 0)
    12d0:	8a 81       	ldd	r24, Y+2	; 0x02
    12d2:	81 11       	cpse	r24, r1
    12d4:	f9 cf       	rjmp	.-14     	; 0x12c8 <USER_Interface+0x12e>
					{
						KEYPAD_ReadKey(&Dummy);//Rehab
					}
					/*End of Press any key...*/
					if(CounterWrongPinEntries >= 3)
    12d6:	13 30       	cpi	r17, 0x03	; 3
    12d8:	08 f1       	brcs	.+66     	; 0x131c <USER_Interface+0x182>
					{
						LCD_SendCommand(LCD_CLEAR_DISPALY); //Rehab
    12da:	81 e0       	ldi	r24, 0x01	; 1
    12dc:	0e 94 d1 0b 	call	0x17a2	; 0x17a2 <LCD_SendCommand>
						LCD_SendCommand(LCD_LINE1_DDRAM_ADDRESS(0)); //Rehab
    12e0:	80 e8       	ldi	r24, 0x80	; 128
    12e2:	0e 94 d1 0b 	call	0x17a2	; 0x17a2 <LCD_SendCommand>
						LCD_SendString((ptr_int8_t) "3 wrong PINs");//Rehab
    12e6:	82 e1       	ldi	r24, 0x12	; 18
    12e8:	94 e0       	ldi	r25, 0x04	; 4
    12ea:	0e 94 84 0e 	call	0x1d08	; 0x1d08 <LCD_SendString>
						CounterWrongPinEntries=0;
						/*Start of Press any key...*/
						LCD_SendCommand(LCD_LINE2_DDRAM_ADDRESS(0)); //Rehab
    12ee:	80 ec       	ldi	r24, 0xC0	; 192
    12f0:	0e 94 d1 0b 	call	0x17a2	; 0x17a2 <LCD_SendCommand>
						LCD_SendString((ptr_int8_t) "Press any key..."); //Rehab
    12f4:	80 e3       	ldi	r24, 0x30	; 48
    12f6:	93 e0       	ldi	r25, 0x03	; 3
    12f8:	0e 94 84 0e 	call	0x1d08	; 0x1d08 <LCD_SendString>
						KEYPAD_MustPressed(&Dummy);//Rehab
    12fc:	ce 01       	movw	r24, r28
    12fe:	02 96       	adiw	r24, 0x02	; 2
    1300:	0e 94 c4 0b 	call	0x1788	; 0x1788 <KEYPAD_MustPressed>
						while(Dummy != 0)
    1304:	04 c0       	rjmp	.+8      	; 0x130e <USER_Interface+0x174>
						{
							KEYPAD_ReadKey(&Dummy);//Rehab
    1306:	ce 01       	movw	r24, r28
    1308:	02 96       	adiw	r24, 0x02	; 2
    130a:	0e 94 4b 0b 	call	0x1696	; 0x1696 <KEYPAD_ReadKey>
						CounterWrongPinEntries=0;
						/*Start of Press any key...*/
						LCD_SendCommand(LCD_LINE2_DDRAM_ADDRESS(0)); //Rehab
						LCD_SendString((ptr_int8_t) "Press any key..."); //Rehab
						KEYPAD_MustPressed(&Dummy);//Rehab
						while(Dummy != 0)
    130e:	8a 81       	ldd	r24, Y+2	; 0x02
    1310:	81 11       	cpse	r24, r1
    1312:	f9 cf       	rjmp	.-14     	; 0x1306 <USER_Interface+0x16c>
						{
							KEYPAD_ReadKey(&Dummy);//Rehab
						}
						/*End of Press any key...*/
						ErrRetVal = OperationSuccess;
    1314:	19 82       	std	Y+1, r1	; 0x01
						break;
    1316:	4b cf       	rjmp	.-362    	; 0x11ae <USER_Interface+0x14>
					}
				}
				else
				{
					ErrRetVal=OperationFail;
    1318:	85 e0       	ldi	r24, 0x05	; 5
    131a:	89 83       	std	Y+1, r24	; 0x01
				}
			}while(AuthenticationResult!=CORRECT_PIN);
    131c:	8c 81       	ldd	r24, Y+4	; 0x04
    131e:	81 30       	cpi	r24, 0x01	; 1
    1320:	09 f0       	breq	.+2      	; 0x1324 <USER_Interface+0x18a>
    1322:	6d cf       	rjmp	.-294    	; 0x11fe <USER_Interface+0x64>
    1324:	44 cf       	rjmp	.-376    	; 0x11ae <USER_Interface+0x14>
		}
		else if(u8_IsExist==NOTEXIST)
    1326:	81 11       	cpse	r24, r1
    1328:	07 c0       	rjmp	.+14     	; 0x1338 <USER_Interface+0x19e>
		{
			diplay_PANNotExist(Dummy, &ErrRetVal);
    132a:	be 01       	movw	r22, r28
    132c:	6f 5f       	subi	r22, 0xFF	; 255
    132e:	7f 4f       	sbci	r23, 0xFF	; 255
    1330:	8a 81       	ldd	r24, Y+2	; 0x02
    1332:	0e 94 9f 05 	call	0xb3e	; 0xb3e <diplay_PANNotExist>
    1336:	3b cf       	rjmp	.-394    	; 0x11ae <USER_Interface+0x14>

		}
		else
		{
			ErrRetVal=OperationFail;
    1338:	85 e0       	ldi	r24, 0x05	; 5
    133a:	89 83       	std	Y+1, r24	; 0x01
    133c:	38 cf       	rjmp	.-400    	; 0x11ae <USER_Interface+0x14>
		}
	}
	else if (PressedKey=='2')
    133e:	82 33       	cpi	r24, 0x32	; 50
    1340:	09 f0       	breq	.+2      	; 0x1344 <USER_Interface+0x1aa>
    1342:	35 cf       	rjmp	.-406    	; 0x11ae <USER_Interface+0x14>
	{
			
		USER_PrintTemp(TEMP_CH_0);//Essam
    1344:	80 e0       	ldi	r24, 0x00	; 0
    1346:	0e 94 98 06 	call	0xd30	; 0xd30 <USER_PrintTemp>
			
		while(PressedKey == '2')
    134a:	04 c0       	rjmp	.+8      	; 0x1354 <USER_Interface+0x1ba>
		{
			KEYPAD_ReadKey(&PressedKey);//Rehab
    134c:	ce 01       	movw	r24, r28
    134e:	05 96       	adiw	r24, 0x05	; 5
    1350:	0e 94 4b 0b 	call	0x1696	; 0x1696 <KEYPAD_ReadKey>
	else if (PressedKey=='2')
	{
			
		USER_PrintTemp(TEMP_CH_0);//Essam
			
		while(PressedKey == '2')
    1354:	8d 81       	ldd	r24, Y+5	; 0x05
    1356:	82 33       	cpi	r24, 0x32	; 50
    1358:	c9 f3       	breq	.-14     	; 0x134c <USER_Interface+0x1b2>
		{
			KEYPAD_ReadKey(&PressedKey);//Rehab
		}
		/*Start of Press any key...*/
		LCD_SendCommand(LCD_LINE2_DDRAM_ADDRESS(0)); //Rehab
    135a:	80 ec       	ldi	r24, 0xC0	; 192
    135c:	0e 94 d1 0b 	call	0x17a2	; 0x17a2 <LCD_SendCommand>
		LCD_SendString((ptr_int8_t) "Press any key..."); //Rehab
    1360:	80 e3       	ldi	r24, 0x30	; 48
    1362:	93 e0       	ldi	r25, 0x03	; 3
    1364:	0e 94 84 0e 	call	0x1d08	; 0x1d08 <LCD_SendString>

		KEYPAD_MustPressed(&Dummy);//Rehab
    1368:	ce 01       	movw	r24, r28
    136a:	02 96       	adiw	r24, 0x02	; 2
    136c:	0e 94 c4 0b 	call	0x1788	; 0x1788 <KEYPAD_MustPressed>
		while(Dummy != 0)
    1370:	04 c0       	rjmp	.+8      	; 0x137a <USER_Interface+0x1e0>
		{
			KEYPAD_ReadKey(&Dummy);//Rehab
    1372:	ce 01       	movw	r24, r28
    1374:	02 96       	adiw	r24, 0x02	; 2
    1376:	0e 94 4b 0b 	call	0x1696	; 0x1696 <KEYPAD_ReadKey>
		/*Start of Press any key...*/
		LCD_SendCommand(LCD_LINE2_DDRAM_ADDRESS(0)); //Rehab
		LCD_SendString((ptr_int8_t) "Press any key..."); //Rehab

		KEYPAD_MustPressed(&Dummy);//Rehab
		while(Dummy != 0)
    137a:	8a 81       	ldd	r24, Y+2	; 0x02
    137c:	81 11       	cpse	r24, r1
    137e:	f9 cf       	rjmp	.-14     	; 0x1372 <USER_Interface+0x1d8>
		{
			KEYPAD_ReadKey(&Dummy);//Rehab
		}
		/*End of Press any key...*/
		ErrRetVal = OperationSuccess;
    1380:	19 82       	std	Y+1, r1	; 0x01
			//   KEYPAD_ReadKey(&Dummy);//Rehab
		//}
		/*End of Press any key...*/
		//ErrRetVal = OperationSuccess;
   }
}
    1382:	15 cf       	rjmp	.-470    	; 0x11ae <USER_Interface+0x14>
		if(u8_IsExist==EXIST)//Essam
		{
			do{
            if(!PSHBTTN_Status(PORT_A, PIN3))
            {
               display_CardRemoved();
    1384:	0e 94 67 05 	call	0xace	; 0xace <display_CardRemoved>
		//ErrRetVal = OperationSuccess;
   }
}
	return ErrRetVal;
	
}
    1388:	80 e0       	ldi	r24, 0x00	; 0
    138a:	0f 90       	pop	r0
    138c:	0f 90       	pop	r0
    138e:	0f 90       	pop	r0
    1390:	0f 90       	pop	r0
    1392:	0f 90       	pop	r0
    1394:	df 91       	pop	r29
    1396:	cf 91       	pop	r28
    1398:	1f 91       	pop	r17
    139a:	08 95       	ret

0000139c <USER_Mode>:

void USER_Mode() //Adel
{
   while(1)
   {
	   USER_Interface(); //Adel
    139c:	0e 94 cd 08 	call	0x119a	; 0x119a <USER_Interface>
    13a0:	fd cf       	rjmp	.-6      	; 0x139c <USER_Mode>

000013a2 <PSHBTTN_EnablePullUp>:
	return retVal;
}
PSHBTTN_ERROR_RETVAL_t PSHBTTN_EnablePullUp(uint8_t port,
		uint8_t pin){
	PSHBTTN_ERROR_RETVAL_t retVal = EXIT_SUCCESFUL;
	DIO_EnablePinPullup(port,pin);
    13a2:	0e 94 44 11 	call	0x2288	; 0x2288 <DIO_EnablePinPullup>
	return retVal;
}
    13a6:	80 e0       	ldi	r24, 0x00	; 0
    13a8:	08 95       	ret

000013aa <PSHBTTN_Init>:
#include "../../Mcal/DIO/DIO.h"
#include "../../Mcal/Timer/TIMER_DRIVER.h"
#include "PushButton.h"

PSHBTTN_ERROR_RETVAL_t PSHBTTN_Init(uint8_t port, uint8_t pin,
		PSHBTTN_PULLUP_Status_t status){
    13aa:	1f 93       	push	r17
    13ac:	cf 93       	push	r28
    13ae:	df 93       	push	r29
    13b0:	c8 2f       	mov	r28, r24
    13b2:	d6 2f       	mov	r29, r22
    13b4:	14 2f       	mov	r17, r20
	PSHBTTN_ERROR_RETVAL_t retVal = EXIT_SUCCESFUL;
	DIO_SetPinDirection(port, pin, PIN_INPUT);
    13b6:	40 e0       	ldi	r20, 0x00	; 0
    13b8:	0e 94 5d 10 	call	0x20ba	; 0x20ba <DIO_SetPinDirection>
	if (!status)
    13bc:	11 11       	cpse	r17, r1
    13be:	04 c0       	rjmp	.+8      	; 0x13c8 <PSHBTTN_Init+0x1e>
		PSHBTTN_EnablePullUp(port, pin);
    13c0:	6d 2f       	mov	r22, r29
    13c2:	8c 2f       	mov	r24, r28
    13c4:	0e 94 d1 09 	call	0x13a2	; 0x13a2 <PSHBTTN_EnablePullUp>
	return retVal;
}
    13c8:	80 e0       	ldi	r24, 0x00	; 0
    13ca:	df 91       	pop	r29
    13cc:	cf 91       	pop	r28
    13ce:	1f 91       	pop	r17
    13d0:	08 95       	ret

000013d2 <PSHBTTN_Status>:
		uint8_t pin){
	PSHBTTN_ERROR_RETVAL_t retVal = EXIT_SUCCESFUL;
	DIO_EnablePinPullup(port,pin);
	return retVal;
}
uint8_t PSHBTTN_Status (uint8_t port, uint8_t pin){
    13d2:	0f 93       	push	r16
    13d4:	1f 93       	push	r17
    13d6:	cf 93       	push	r28
    13d8:	df 93       	push	r29
    13da:	1f 92       	push	r1
    13dc:	cd b7       	in	r28, 0x3d	; 61
    13de:	de b7       	in	r29, 0x3e	; 62
    13e0:	18 2f       	mov	r17, r24
    13e2:	06 2f       	mov	r16, r22
	uint8_t retVal = EXIT_FAILURE;
    13e4:	81 e0       	ldi	r24, 0x01	; 1
    13e6:	89 83       	std	Y+1, r24	; 0x01
	DIO_ReadPin(port, pin, &retVal);
    13e8:	ae 01       	movw	r20, r28
    13ea:	4f 5f       	subi	r20, 0xFF	; 255
    13ec:	5f 4f       	sbci	r21, 0xFF	; 255
    13ee:	81 2f       	mov	r24, r17
    13f0:	0e 94 0f 11 	call	0x221e	; 0x221e <DIO_ReadPin>
	if (retVal == 0){
    13f4:	89 81       	ldd	r24, Y+1	; 0x01
    13f6:	81 11       	cpse	r24, r1
    13f8:	07 c0       	rjmp	.+14     	; 0x1408 <PSHBTTN_Status+0x36>
			//TIM_Delay_MS(TIMER0,20);//dummy delay for 20ms
			DIO_ReadPin(port, pin, &retVal);
    13fa:	ae 01       	movw	r20, r28
    13fc:	4f 5f       	subi	r20, 0xFF	; 255
    13fe:	5f 4f       	sbci	r21, 0xFF	; 255
    1400:	60 2f       	mov	r22, r16
    1402:	81 2f       	mov	r24, r17
    1404:	0e 94 0f 11 	call	0x221e	; 0x221e <DIO_ReadPin>
		}
	return retVal;
}
    1408:	89 81       	ldd	r24, Y+1	; 0x01
    140a:	0f 90       	pop	r0
    140c:	df 91       	pop	r29
    140e:	cf 91       	pop	r28
    1410:	1f 91       	pop	r17
    1412:	0f 91       	pop	r16
    1414:	08 95       	ret

00001416 <EEPROM_Init>:
{
   I2C_ERROR_state_t e_state;
   
   uint8_t u8_I2C_CH;
   
   switch(EEPROM_CH)
    1416:	81 30       	cpi	r24, 0x01	; 1
    1418:	39 f4       	brne	.+14     	; 0x1428 <EEPROM_Init+0x12>
      default:
         return E_EEPROM_INVALID_CH_NO;
   }
   
   /* configure i2c pins */
   e_state = I2C_Init(u8_I2C_CH);
    141a:	80 e0       	ldi	r24, 0x00	; 0
    141c:	0e 94 79 11 	call	0x22f2	; 0x22f2 <I2C_Init>
   /* make sure pin configuration is successful */
   if(E_I2C_SUCCESS != e_state)
    1420:	88 23       	and	r24, r24
    1422:	21 f0       	breq	.+8      	; 0x142c <EEPROM_Init+0x16>
   {
      return E_EEPROM_I2C_ERROR;
    1424:	82 e0       	ldi	r24, 0x02	; 2
    1426:	08 95       	ret
      case EEPROM_CH_0:
         u8_I2C_CH = EEPROM_CH_0_I2C_CH;
         break;
      #endif
      default:
         return E_EEPROM_INVALID_CH_NO;
    1428:	81 e0       	ldi	r24, 0x01	; 1
    142a:	08 95       	ret
   {
      return E_EEPROM_I2C_ERROR;
   }
   
   /* return success message */
   return E_EEPROM_SUCCESS;
    142c:	80 e0       	ldi	r24, 0x00	; 0
}
    142e:	08 95       	ret

00001430 <EEPROM_Read>:
* @param [out] data        -  Pointer to where to store received data.
*
* @return function error state.
*/
EEPROM_ERROR_state_t EEPROM_Read(uint8_t EEPROM_CH, uint8_t memoryBlock, uint8_t address, uint8_t * data)
{
    1430:	0f 93       	push	r16
    1432:	1f 93       	push	r17
    1434:	cf 93       	push	r28
    1436:	df 93       	push	r29
   if(NULL_PTR == data)
    1438:	21 15       	cp	r18, r1
    143a:	31 05       	cpc	r19, r1
    143c:	49 f1       	breq	.+82     	; 0x1490 <EEPROM_Read+0x60>
   
   I2C_ERROR_state_t e_state;
   
   uint8_t u8_I2C_CH;
   
   switch(EEPROM_CH)
    143e:	81 30       	cpi	r24, 0x01	; 1
    1440:	49 f5       	brne	.+82     	; 0x1494 <EEPROM_Read+0x64>
    1442:	e9 01       	movw	r28, r18
    1444:	04 2f       	mov	r16, r20
    1446:	16 2f       	mov	r17, r22
      default:
         return E_EEPROM_INVALID_CH_NO;
   }

   /* Set start condition */
   e_state =I2C_Start(u8_I2C_CH);
    1448:	80 e0       	ldi	r24, 0x00	; 0
    144a:	0e 94 88 11 	call	0x2310	; 0x2310 <I2C_Start>
   if(E_I2C_SUCCESS != e_state)
    144e:	81 11       	cpse	r24, r1
    1450:	23 c0       	rjmp	.+70     	; 0x1498 <EEPROM_Read+0x68>
   {
      return E_EEPROM_I2C_ERROR;
   }

   /* Set first memory block address + W */
   e_state = I2C_Write(u8_I2C_CH, memoryBlock);
    1452:	61 2f       	mov	r22, r17
    1454:	0e 94 9f 11 	call	0x233e	; 0x233e <I2C_Write>
   if(E_I2C_SUCCESS != e_state)
    1458:	81 11       	cpse	r24, r1
    145a:	20 c0       	rjmp	.+64     	; 0x149c <EEPROM_Read+0x6c>
   {
      return E_EEPROM_I2C_ERROR;
   }

   /* Set address to read from */
   e_state = I2C_Write(u8_I2C_CH, address);
    145c:	60 2f       	mov	r22, r16
    145e:	0e 94 9f 11 	call	0x233e	; 0x233e <I2C_Write>
   if(E_I2C_SUCCESS != e_state)
    1462:	81 11       	cpse	r24, r1
    1464:	1d c0       	rjmp	.+58     	; 0x14a0 <EEPROM_Read+0x70>
   {
      return E_EEPROM_I2C_ERROR;
   }

   /* repeated start */
   e_state = I2C_RepeatedStart(u8_I2C_CH);
    1466:	0e 94 93 11 	call	0x2326	; 0x2326 <I2C_RepeatedStart>
   if(E_I2C_SUCCESS != e_state)
    146a:	81 11       	cpse	r24, r1
    146c:	1b c0       	rjmp	.+54     	; 0x14a4 <EEPROM_Read+0x74>
   {
      return E_EEPROM_I2C_ERROR;
   }

   /* Set first memory block address + R */
   e_state= I2C_Write(u8_I2C_CH, memoryBlock | 1 );
    146e:	61 2f       	mov	r22, r17
    1470:	61 60       	ori	r22, 0x01	; 1
    1472:	0e 94 9f 11 	call	0x233e	; 0x233e <I2C_Write>
   if(E_I2C_SUCCESS != e_state)
    1476:	81 11       	cpse	r24, r1
    1478:	17 c0       	rjmp	.+46     	; 0x14a8 <EEPROM_Read+0x78>
   {
      return E_EEPROM_I2C_ERROR;
   }

   /* receive data in the address */
   e_state = I2C_ReadNoAck(u8_I2C_CH, data);
    147a:	be 01       	movw	r22, r28
    147c:	0e 94 ab 11 	call	0x2356	; 0x2356 <I2C_ReadNoAck>
   if(E_I2C_SUCCESS != e_state)
    1480:	81 11       	cpse	r24, r1
    1482:	14 c0       	rjmp	.+40     	; 0x14ac <EEPROM_Read+0x7c>
   {
      return E_EEPROM_I2C_ERROR;
   }

   /* release the bus */
   e_state = I2C_Stop(u8_I2C_CH);
    1484:	0e 94 c2 11 	call	0x2384	; 0x2384 <I2C_Stop>
   if(E_I2C_SUCCESS != e_state)
    1488:	88 23       	and	r24, r24
    148a:	91 f0       	breq	.+36     	; 0x14b0 <EEPROM_Read+0x80>
   {
      return E_EEPROM_I2C_ERROR;
    148c:	82 e0       	ldi	r24, 0x02	; 2
    148e:	11 c0       	rjmp	.+34     	; 0x14b2 <EEPROM_Read+0x82>
*/
EEPROM_ERROR_state_t EEPROM_Read(uint8_t EEPROM_CH, uint8_t memoryBlock, uint8_t address, uint8_t * data)
{
   if(NULL_PTR == data)
   {
      return E_EEPROM_NULL_PTR;
    1490:	84 e0       	ldi	r24, 0x04	; 4
    1492:	0f c0       	rjmp	.+30     	; 0x14b2 <EEPROM_Read+0x82>
      case EEPROM_CH_0:
         u8_I2C_CH = EEPROM_CH_0_I2C_CH;
         break;
      #endif
      default:
         return E_EEPROM_INVALID_CH_NO;
    1494:	81 e0       	ldi	r24, 0x01	; 1
    1496:	0d c0       	rjmp	.+26     	; 0x14b2 <EEPROM_Read+0x82>

   /* Set start condition */
   e_state =I2C_Start(u8_I2C_CH);
   if(E_I2C_SUCCESS != e_state)
   {
      return E_EEPROM_I2C_ERROR;
    1498:	82 e0       	ldi	r24, 0x02	; 2
    149a:	0b c0       	rjmp	.+22     	; 0x14b2 <EEPROM_Read+0x82>

   /* Set first memory block address + W */
   e_state = I2C_Write(u8_I2C_CH, memoryBlock);
   if(E_I2C_SUCCESS != e_state)
   {
      return E_EEPROM_I2C_ERROR;
    149c:	82 e0       	ldi	r24, 0x02	; 2
    149e:	09 c0       	rjmp	.+18     	; 0x14b2 <EEPROM_Read+0x82>

   /* Set address to read from */
   e_state = I2C_Write(u8_I2C_CH, address);
   if(E_I2C_SUCCESS != e_state)
   {
      return E_EEPROM_I2C_ERROR;
    14a0:	82 e0       	ldi	r24, 0x02	; 2
    14a2:	07 c0       	rjmp	.+14     	; 0x14b2 <EEPROM_Read+0x82>

   /* repeated start */
   e_state = I2C_RepeatedStart(u8_I2C_CH);
   if(E_I2C_SUCCESS != e_state)
   {
      return E_EEPROM_I2C_ERROR;
    14a4:	82 e0       	ldi	r24, 0x02	; 2
    14a6:	05 c0       	rjmp	.+10     	; 0x14b2 <EEPROM_Read+0x82>

   /* Set first memory block address + R */
   e_state= I2C_Write(u8_I2C_CH, memoryBlock | 1 );
   if(E_I2C_SUCCESS != e_state)
   {
      return E_EEPROM_I2C_ERROR;
    14a8:	82 e0       	ldi	r24, 0x02	; 2
    14aa:	03 c0       	rjmp	.+6      	; 0x14b2 <EEPROM_Read+0x82>

   /* receive data in the address */
   e_state = I2C_ReadNoAck(u8_I2C_CH, data);
   if(E_I2C_SUCCESS != e_state)
   {
      return E_EEPROM_I2C_ERROR;
    14ac:	82 e0       	ldi	r24, 0x02	; 2
    14ae:	01 c0       	rjmp	.+2      	; 0x14b2 <EEPROM_Read+0x82>
   {
      return E_EEPROM_I2C_ERROR;
   }
   
   /* return success message */
   return E_EEPROM_SUCCESS;
    14b0:	80 e0       	ldi	r24, 0x00	; 0
}
    14b2:	df 91       	pop	r29
    14b4:	cf 91       	pop	r28
    14b6:	1f 91       	pop	r17
    14b8:	0f 91       	pop	r16
    14ba:	08 95       	ret

000014bc <EEPROM_Write>:
* @param [in]  data        -  Data to write.
*
* @return function error state.
*/
EEPROM_ERROR_state_t EEPROM_Write(uint8_t EEPROM_CH, uint8_t memoryBlock, uint8_t address, uint8_t data)
{
    14bc:	1f 93       	push	r17
    14be:	cf 93       	push	r28
    14c0:	df 93       	push	r29
   I2C_ERROR_state_t e_state;
   uint8_t u8_I2C_CH;
   
   switch(EEPROM_CH)
    14c2:	81 30       	cpi	r24, 0x01	; 1
    14c4:	e9 f4       	brne	.+58     	; 0x1500 <EEPROM_Write+0x44>
    14c6:	12 2f       	mov	r17, r18
    14c8:	d4 2f       	mov	r29, r20
    14ca:	c6 2f       	mov	r28, r22
      #endif
      default:
         return E_EEPROM_INVALID_CH_NO;
   }
   /* Set start condition */
   e_state = I2C_Start(u8_I2C_CH);
    14cc:	80 e0       	ldi	r24, 0x00	; 0
    14ce:	0e 94 88 11 	call	0x2310	; 0x2310 <I2C_Start>
   if(E_I2C_SUCCESS != e_state)
    14d2:	81 11       	cpse	r24, r1
    14d4:	17 c0       	rjmp	.+46     	; 0x1504 <EEPROM_Write+0x48>
   {
      return E_EEPROM_I2C_ERROR;
   }

   /* Set first memory block address + W */
   e_state = I2C_Write(u8_I2C_CH, memoryBlock);
    14d6:	6c 2f       	mov	r22, r28
    14d8:	0e 94 9f 11 	call	0x233e	; 0x233e <I2C_Write>
   if(E_I2C_SUCCESS != e_state)
    14dc:	81 11       	cpse	r24, r1
    14de:	14 c0       	rjmp	.+40     	; 0x1508 <EEPROM_Write+0x4c>
   {
      return E_EEPROM_I2C_ERROR;
   }

   /* set address to write to */
   e_state = I2C_Write(u8_I2C_CH, address);
    14e0:	6d 2f       	mov	r22, r29
    14e2:	0e 94 9f 11 	call	0x233e	; 0x233e <I2C_Write>
   if(E_I2C_SUCCESS != e_state)
    14e6:	81 11       	cpse	r24, r1
    14e8:	11 c0       	rjmp	.+34     	; 0x150c <EEPROM_Write+0x50>
   {
      return E_EEPROM_I2C_ERROR;
   }

   /* writes data to the address */
   e_state = I2C_Write(u8_I2C_CH, data);
    14ea:	61 2f       	mov	r22, r17
    14ec:	0e 94 9f 11 	call	0x233e	; 0x233e <I2C_Write>
   if(E_I2C_SUCCESS != e_state)
    14f0:	81 11       	cpse	r24, r1
    14f2:	0e c0       	rjmp	.+28     	; 0x1510 <EEPROM_Write+0x54>
   {
      return E_EEPROM_I2C_ERROR;
   }

   /* release the bus */
   e_state = I2C_Stop(u8_I2C_CH);
    14f4:	0e 94 c2 11 	call	0x2384	; 0x2384 <I2C_Stop>
   if(E_I2C_SUCCESS != e_state)
    14f8:	88 23       	and	r24, r24
    14fa:	61 f0       	breq	.+24     	; 0x1514 <EEPROM_Write+0x58>
   {
      return E_EEPROM_I2C_ERROR;
    14fc:	82 e0       	ldi	r24, 0x02	; 2
    14fe:	0b c0       	rjmp	.+22     	; 0x1516 <EEPROM_Write+0x5a>
      case EEPROM_CH_0:
         u8_I2C_CH = EEPROM_CH_0_I2C_CH;
         break;
      #endif
      default:
         return E_EEPROM_INVALID_CH_NO;
    1500:	81 e0       	ldi	r24, 0x01	; 1
    1502:	09 c0       	rjmp	.+18     	; 0x1516 <EEPROM_Write+0x5a>
   }
   /* Set start condition */
   e_state = I2C_Start(u8_I2C_CH);
   if(E_I2C_SUCCESS != e_state)
   {
      return E_EEPROM_I2C_ERROR;
    1504:	82 e0       	ldi	r24, 0x02	; 2
    1506:	07 c0       	rjmp	.+14     	; 0x1516 <EEPROM_Write+0x5a>

   /* Set first memory block address + W */
   e_state = I2C_Write(u8_I2C_CH, memoryBlock);
   if(E_I2C_SUCCESS != e_state)
   {
      return E_EEPROM_I2C_ERROR;
    1508:	82 e0       	ldi	r24, 0x02	; 2
    150a:	05 c0       	rjmp	.+10     	; 0x1516 <EEPROM_Write+0x5a>

   /* set address to write to */
   e_state = I2C_Write(u8_I2C_CH, address);
   if(E_I2C_SUCCESS != e_state)
   {
      return E_EEPROM_I2C_ERROR;
    150c:	82 e0       	ldi	r24, 0x02	; 2
    150e:	03 c0       	rjmp	.+6      	; 0x1516 <EEPROM_Write+0x5a>

   /* writes data to the address */
   e_state = I2C_Write(u8_I2C_CH, data);
   if(E_I2C_SUCCESS != e_state)
   {
      return E_EEPROM_I2C_ERROR;
    1510:	82 e0       	ldi	r24, 0x02	; 2
    1512:	01 c0       	rjmp	.+2      	; 0x1516 <EEPROM_Write+0x5a>
   {
      return E_EEPROM_I2C_ERROR;
   }

   /* return success message */
   return E_EEPROM_SUCCESS;
    1514:	80 e0       	ldi	r24, 0x00	; 0
}
    1516:	df 91       	pop	r29
    1518:	cf 91       	pop	r28
    151a:	1f 91       	pop	r17
    151c:	08 95       	ret

0000151e <EEPROM_ReadBytes>:
* @param [in]  bytes_num   -  number of bytes to read.
*
* @return function error state.
*/
EEPROM_ERROR_state_t EEPROM_ReadBytes(uint8_t EEPROM_CH, uint8_t memoryBlock, uint8_t start_address, uint8_t * data, uint8_t bytes_num)
{
    151e:	df 92       	push	r13
    1520:	ef 92       	push	r14
    1522:	ff 92       	push	r15
    1524:	0f 93       	push	r16
    1526:	1f 93       	push	r17
    1528:	cf 93       	push	r28
    152a:	df 93       	push	r29
   if(NULL_PTR == data)
    152c:	21 15       	cp	r18, r1
    152e:	31 05       	cpc	r19, r1
    1530:	c9 f0       	breq	.+50     	; 0x1564 <EEPROM_ReadBytes+0x46>
   {
      return E_EEPROM_NULL_PTR;
   }
   
   switch(EEPROM_CH)
    1532:	81 30       	cpi	r24, 0x01	; 1
    1534:	71 f0       	breq	.+28     	; 0x1552 <EEPROM_ReadBytes+0x34>
    1536:	18 c0       	rjmp	.+48     	; 0x1568 <EEPROM_ReadBytes+0x4a>
   
   I2C_ERROR_state_t e_state;
   
   for(uint8_t au8_BytesCounter = 0 ; au8_BytesCounter < bytes_num; au8_BytesCounter++)
   {
      e_state = EEPROM_Read(EEPROM_CH, memoryBlock, (start_address + au8_BytesCounter), &data[au8_BytesCounter]);
    1538:	97 01       	movw	r18, r14
    153a:	2c 0f       	add	r18, r28
    153c:	31 1d       	adc	r19, r1
    153e:	4c 2f       	mov	r20, r28
    1540:	4d 0d       	add	r20, r13
    1542:	61 2f       	mov	r22, r17
    1544:	8d 2f       	mov	r24, r29
    1546:	0e 94 18 0a 	call	0x1430	; 0x1430 <EEPROM_Read>
      if(E_I2C_SUCCESS != e_state)
    154a:	81 11       	cpse	r24, r1
    154c:	0f c0       	rjmp	.+30     	; 0x156c <EEPROM_ReadBytes+0x4e>
         return E_EEPROM_INVALID_CH_NO;
   }
   
   I2C_ERROR_state_t e_state;
   
   for(uint8_t au8_BytesCounter = 0 ; au8_BytesCounter < bytes_num; au8_BytesCounter++)
    154e:	cf 5f       	subi	r28, 0xFF	; 255
    1550:	05 c0       	rjmp	.+10     	; 0x155c <EEPROM_ReadBytes+0x3e>
    1552:	79 01       	movw	r14, r18
    1554:	d4 2e       	mov	r13, r20
    1556:	16 2f       	mov	r17, r22
    1558:	d8 2f       	mov	r29, r24
   if(NULL_PTR == data)
   {
      return E_EEPROM_NULL_PTR;
   }
   
   switch(EEPROM_CH)
    155a:	c0 e0       	ldi	r28, 0x00	; 0
         return E_EEPROM_INVALID_CH_NO;
   }
   
   I2C_ERROR_state_t e_state;
   
   for(uint8_t au8_BytesCounter = 0 ; au8_BytesCounter < bytes_num; au8_BytesCounter++)
    155c:	c0 17       	cp	r28, r16
    155e:	60 f3       	brcs	.-40     	; 0x1538 <EEPROM_ReadBytes+0x1a>
         return E_EEPROM_I2C_ERROR;
      }
   }
   
   /* return success message */
   return E_EEPROM_SUCCESS;
    1560:	80 e0       	ldi	r24, 0x00	; 0
    1562:	05 c0       	rjmp	.+10     	; 0x156e <EEPROM_ReadBytes+0x50>
*/
EEPROM_ERROR_state_t EEPROM_ReadBytes(uint8_t EEPROM_CH, uint8_t memoryBlock, uint8_t start_address, uint8_t * data, uint8_t bytes_num)
{
   if(NULL_PTR == data)
   {
      return E_EEPROM_NULL_PTR;
    1564:	84 e0       	ldi	r24, 0x04	; 4
    1566:	03 c0       	rjmp	.+6      	; 0x156e <EEPROM_ReadBytes+0x50>
      #ifdef EEPROM_CH_0
      case EEPROM_CH_0:
         break;
      #endif
      default:
         return E_EEPROM_INVALID_CH_NO;
    1568:	81 e0       	ldi	r24, 0x01	; 1
    156a:	01 c0       	rjmp	.+2      	; 0x156e <EEPROM_ReadBytes+0x50>
   for(uint8_t au8_BytesCounter = 0 ; au8_BytesCounter < bytes_num; au8_BytesCounter++)
   {
      e_state = EEPROM_Read(EEPROM_CH, memoryBlock, (start_address + au8_BytesCounter), &data[au8_BytesCounter]);
      if(E_I2C_SUCCESS != e_state)
      {
         return E_EEPROM_I2C_ERROR;
    156c:	82 e0       	ldi	r24, 0x02	; 2
      }
   }
   
   /* return success message */
   return E_EEPROM_SUCCESS;
}
    156e:	df 91       	pop	r29
    1570:	cf 91       	pop	r28
    1572:	1f 91       	pop	r17
    1574:	0f 91       	pop	r16
    1576:	ff 90       	pop	r15
    1578:	ef 90       	pop	r14
    157a:	df 90       	pop	r13
    157c:	08 95       	ret

0000157e <EEPROM_WriteBytes>:
* @param [in]  bytes_num   -  number of bytes to write.
*
* @return function error state.
*/
EEPROM_ERROR_state_t EEPROM_WriteBytes(uint8_t EEPROM_CH, uint8_t memoryBlock, uint8_t start_address, uint8_t * data, uint8_t bytes_num)
{
    157e:	df 92       	push	r13
    1580:	ef 92       	push	r14
    1582:	ff 92       	push	r15
    1584:	0f 93       	push	r16
    1586:	1f 93       	push	r17
    1588:	cf 93       	push	r28
    158a:	df 93       	push	r29
   if(NULL_PTR == data)
    158c:	21 15       	cp	r18, r1
    158e:	31 05       	cpc	r19, r1
    1590:	01 f1       	breq	.+64     	; 0x15d2 <EEPROM_WriteBytes+0x54>
   {
      return E_EEPROM_NULL_PTR;
   }
   
   switch(EEPROM_CH)
    1592:	81 30       	cpi	r24, 0x01	; 1
    1594:	a9 f0       	breq	.+42     	; 0x15c0 <EEPROM_WriteBytes+0x42>
    1596:	1f c0       	rjmp	.+62     	; 0x15d6 <EEPROM_WriteBytes+0x58>
   
   I2C_ERROR_state_t e_state;
   
   for(uint8_t au8_BytesCounter = 0 ; au8_BytesCounter < bytes_num; au8_BytesCounter++)
   {
      e_state = EEPROM_Write(EEPROM_CH, memoryBlock, (start_address + au8_BytesCounter), data[au8_BytesCounter]);
    1598:	f7 01       	movw	r30, r14
    159a:	ec 0f       	add	r30, r28
    159c:	f1 1d       	adc	r31, r1
    159e:	20 81       	ld	r18, Z
    15a0:	4c 2f       	mov	r20, r28
    15a2:	4d 0d       	add	r20, r13
    15a4:	61 2f       	mov	r22, r17
    15a6:	8d 2f       	mov	r24, r29
    15a8:	0e 94 5e 0a 	call	0x14bc	; 0x14bc <EEPROM_Write>
      if(E_I2C_SUCCESS != e_state)
    15ac:	81 11       	cpse	r24, r1
    15ae:	15 c0       	rjmp	.+42     	; 0x15da <EEPROM_WriteBytes+0x5c>
      {
         return E_EEPROM_I2C_ERROR;
      }
      dummy_delay();
    15b0:	0e 94 b4 0f 	call	0x1f68	; 0x1f68 <dummy_delay>
      dummy_delay();
    15b4:	0e 94 b4 0f 	call	0x1f68	; 0x1f68 <dummy_delay>
	  dummy_delay();
    15b8:	0e 94 b4 0f 	call	0x1f68	; 0x1f68 <dummy_delay>
         return E_EEPROM_INVALID_CH_NO;
   }
   
   I2C_ERROR_state_t e_state;
   
   for(uint8_t au8_BytesCounter = 0 ; au8_BytesCounter < bytes_num; au8_BytesCounter++)
    15bc:	cf 5f       	subi	r28, 0xFF	; 255
    15be:	05 c0       	rjmp	.+10     	; 0x15ca <EEPROM_WriteBytes+0x4c>
    15c0:	79 01       	movw	r14, r18
    15c2:	d4 2e       	mov	r13, r20
    15c4:	16 2f       	mov	r17, r22
    15c6:	d8 2f       	mov	r29, r24
   if(NULL_PTR == data)
   {
      return E_EEPROM_NULL_PTR;
   }
   
   switch(EEPROM_CH)
    15c8:	c0 e0       	ldi	r28, 0x00	; 0
         return E_EEPROM_INVALID_CH_NO;
   }
   
   I2C_ERROR_state_t e_state;
   
   for(uint8_t au8_BytesCounter = 0 ; au8_BytesCounter < bytes_num; au8_BytesCounter++)
    15ca:	c0 17       	cp	r28, r16
    15cc:	28 f3       	brcs	.-54     	; 0x1598 <EEPROM_WriteBytes+0x1a>
      dummy_delay();
	  dummy_delay();
   }
   
   /* return success message */
   return E_EEPROM_SUCCESS;
    15ce:	80 e0       	ldi	r24, 0x00	; 0
    15d0:	05 c0       	rjmp	.+10     	; 0x15dc <EEPROM_WriteBytes+0x5e>
*/
EEPROM_ERROR_state_t EEPROM_WriteBytes(uint8_t EEPROM_CH, uint8_t memoryBlock, uint8_t start_address, uint8_t * data, uint8_t bytes_num)
{
   if(NULL_PTR == data)
   {
      return E_EEPROM_NULL_PTR;
    15d2:	84 e0       	ldi	r24, 0x04	; 4
    15d4:	03 c0       	rjmp	.+6      	; 0x15dc <EEPROM_WriteBytes+0x5e>
      #ifdef EEPROM_CH_0
      case EEPROM_CH_0:
         break;
      #endif
      default:
         return E_EEPROM_INVALID_CH_NO;
    15d6:	81 e0       	ldi	r24, 0x01	; 1
    15d8:	01 c0       	rjmp	.+2      	; 0x15dc <EEPROM_WriteBytes+0x5e>
   for(uint8_t au8_BytesCounter = 0 ; au8_BytesCounter < bytes_num; au8_BytesCounter++)
   {
      e_state = EEPROM_Write(EEPROM_CH, memoryBlock, (start_address + au8_BytesCounter), data[au8_BytesCounter]);
      if(E_I2C_SUCCESS != e_state)
      {
         return E_EEPROM_I2C_ERROR;
    15da:	82 e0       	ldi	r24, 0x02	; 2
   }
   
   /* return success message */
   return E_EEPROM_SUCCESS;
   
}
    15dc:	df 91       	pop	r29
    15de:	cf 91       	pop	r28
    15e0:	1f 91       	pop	r17
    15e2:	0f 91       	pop	r16
    15e4:	ff 90       	pop	r15
    15e6:	ef 90       	pop	r14
    15e8:	df 90       	pop	r13
    15ea:	08 95       	ret

000015ec <KEYPAD_Init>:
extern Str_KeypadConfig_t gastr_KeypadConfig[];

extern uint8_t gau8_Keypad[ROWS_NUMBER][COLUMNS_NUMBER];

uint8_t KEYPAD_Init(void)
{
    15ec:	0f 93       	push	r16
    15ee:	1f 93       	push	r17
    15f0:	cf 93       	push	r28
	for(uint8_t au8_IterationNo=0;au8_IterationNo<KEYPAD_TOTAL_PINS_NUMBER;au8_IterationNo++)
    15f2:	c0 e0       	ldi	r28, 0x00	; 0
    15f4:	2b c0       	rjmp	.+86     	; 0x164c <KEYPAD_Init+0x60>
	{
		DIO_SetPinDirection(	gastr_KeypadConfig[au8_IterationNo].KeypadPort,
    15f6:	0c 2f       	mov	r16, r28
    15f8:	10 e0       	ldi	r17, 0x00	; 0
    15fa:	f8 01       	movw	r30, r16
    15fc:	ee 0f       	add	r30, r30
    15fe:	ff 1f       	adc	r31, r31
    1600:	e0 0f       	add	r30, r16
    1602:	f1 1f       	adc	r31, r17
    1604:	ef 58       	subi	r30, 0x8F	; 143
    1606:	ff 4f       	sbci	r31, 0xFF	; 255
    1608:	42 81       	ldd	r20, Z+2	; 0x02
    160a:	61 81       	ldd	r22, Z+1	; 0x01
    160c:	80 81       	ld	r24, Z
    160e:	0e 94 5d 10 	call	0x20ba	; 0x20ba <DIO_SetPinDirection>
								gastr_KeypadConfig[au8_IterationNo].KeypadPin,
								gastr_KeypadConfig[au8_IterationNo].KeypadDirection );
		
		#if KEYPAD_INPUT_PINS_CONNECTION_MODE==KEYPAD_PULLUP_SW
			if(au8_IterationNo<ROWS_NUMBER)
    1612:	c4 30       	cpi	r28, 0x04	; 4
    1614:	58 f4       	brcc	.+22     	; 0x162c <KEYPAD_Init+0x40>
			{	
				DIO_EnablePinPullup(	gastr_KeypadConfig[au8_IterationNo].KeypadPort,
    1616:	f8 01       	movw	r30, r16
    1618:	ee 0f       	add	r30, r30
    161a:	ff 1f       	adc	r31, r31
    161c:	e0 0f       	add	r30, r16
    161e:	f1 1f       	adc	r31, r17
    1620:	ef 58       	subi	r30, 0x8F	; 143
    1622:	ff 4f       	sbci	r31, 0xFF	; 255
    1624:	61 81       	ldd	r22, Z+1	; 0x01
    1626:	80 81       	ld	r24, Z
    1628:	0e 94 44 11 	call	0x2288	; 0x2288 <DIO_EnablePinPullup>
				DIO_WritePin(	gastr_KeypadConfig[au8_IterationNo].KeypadPort,
								gastr_KeypadConfig[au8_IterationNo].KeypadPin,
								PIN_LOW);
			}
		#else
			if(au8_IterationNo>=ROWS_NUMBER)
    162c:	c4 30       	cpi	r28, 0x04	; 4
    162e:	68 f0       	brcs	.+26     	; 0x164a <KEYPAD_Init+0x5e>
			{	
				DIO_WritePin(	gastr_KeypadConfig[au8_IterationNo].KeypadPort,
    1630:	f8 01       	movw	r30, r16
    1632:	ee 0f       	add	r30, r30
    1634:	ff 1f       	adc	r31, r31
    1636:	0e 0f       	add	r16, r30
    1638:	1f 1f       	adc	r17, r31
    163a:	f8 01       	movw	r30, r16
    163c:	ef 58       	subi	r30, 0x8F	; 143
    163e:	ff 4f       	sbci	r31, 0xFF	; 255
    1640:	41 e0       	ldi	r20, 0x01	; 1
    1642:	61 81       	ldd	r22, Z+1	; 0x01
    1644:	80 81       	ld	r24, Z
    1646:	0e 94 b6 10 	call	0x216c	; 0x216c <DIO_WritePin>

extern uint8_t gau8_Keypad[ROWS_NUMBER][COLUMNS_NUMBER];

uint8_t KEYPAD_Init(void)
{
	for(uint8_t au8_IterationNo=0;au8_IterationNo<KEYPAD_TOTAL_PINS_NUMBER;au8_IterationNo++)
    164a:	cf 5f       	subi	r28, 0xFF	; 255
    164c:	c7 30       	cpi	r28, 0x07	; 7
    164e:	98 f2       	brcs	.-90     	; 0x15f6 <KEYPAD_Init+0xa>
								PIN_HIGH);
			}			
		#endif	
	}	
	return ERROR_OK;
}
    1650:	80 e0       	ldi	r24, 0x00	; 0
    1652:	cf 91       	pop	r28
    1654:	1f 91       	pop	r17
    1656:	0f 91       	pop	r16
    1658:	08 95       	ret

0000165a <KEYPAD_WhichRow>:
			default:
				*RowNumber=4;
				break;
		}
	#else
		switch(RowsVal)
    165a:	8b 30       	cpi	r24, 0x0B	; 11
    165c:	79 f0       	breq	.+30     	; 0x167c <KEYPAD_WhichRow+0x22>
    165e:	18 f4       	brcc	.+6      	; 0x1666 <KEYPAD_WhichRow+0xc>
    1660:	87 30       	cpi	r24, 0x07	; 7
    1662:	81 f0       	breq	.+32     	; 0x1684 <KEYPAD_WhichRow+0x2a>
    1664:	13 c0       	rjmp	.+38     	; 0x168c <KEYPAD_WhichRow+0x32>
    1666:	8d 30       	cpi	r24, 0x0D	; 13
    1668:	29 f0       	breq	.+10     	; 0x1674 <KEYPAD_WhichRow+0x1a>
    166a:	8e 30       	cpi	r24, 0x0E	; 14
    166c:	79 f4       	brne	.+30     	; 0x168c <KEYPAD_WhichRow+0x32>
		{
			case 0X0E:
				*RowNumber=0;			
    166e:	fb 01       	movw	r30, r22
    1670:	10 82       	st	Z, r1
				break;
    1672:	0f c0       	rjmp	.+30     	; 0x1692 <KEYPAD_WhichRow+0x38>
			case 0X0D:
				*RowNumber=1;		
    1674:	81 e0       	ldi	r24, 0x01	; 1
    1676:	fb 01       	movw	r30, r22
    1678:	80 83       	st	Z, r24
				break;
    167a:	0b c0       	rjmp	.+22     	; 0x1692 <KEYPAD_WhichRow+0x38>
			case 0X0B:
				*RowNumber=2;		
    167c:	82 e0       	ldi	r24, 0x02	; 2
    167e:	fb 01       	movw	r30, r22
    1680:	80 83       	st	Z, r24
				break;
    1682:	07 c0       	rjmp	.+14     	; 0x1692 <KEYPAD_WhichRow+0x38>
			case 0X07:
				*RowNumber=3;		
    1684:	83 e0       	ldi	r24, 0x03	; 3
    1686:	fb 01       	movw	r30, r22
    1688:	80 83       	st	Z, r24
				break;
    168a:	03 c0       	rjmp	.+6      	; 0x1692 <KEYPAD_WhichRow+0x38>
			default:
				*RowNumber=4;
    168c:	84 e0       	ldi	r24, 0x04	; 4
    168e:	fb 01       	movw	r30, r22
    1690:	80 83       	st	Z, r24
				break;
		}
	#endif	
	return ERROR_OK;
}
    1692:	80 e0       	ldi	r24, 0x00	; 0
    1694:	08 95       	ret

00001696 <KEYPAD_ReadKey>:
	}	
	return ERROR_OK;
}

uint8_t KEYPAD_ReadKey(ptr_uint8_t Key)
{
    1696:	cf 92       	push	r12
    1698:	df 92       	push	r13
    169a:	ef 92       	push	r14
    169c:	0f 93       	push	r16
    169e:	1f 93       	push	r17
    16a0:	cf 93       	push	r28
    16a2:	df 93       	push	r29
    16a4:	1f 92       	push	r1
    16a6:	cd b7       	in	r28, 0x3d	; 61
    16a8:	de b7       	in	r29, 0x3e	; 62
    16aa:	6c 01       	movw	r12, r24
			uint8_t u8_Row;
			KEYPAD_WhichRow(u8_RowsVal,&u8_Row);
			*Key=gau8_Keypad[u8_Row][u8_Col];
		}				
	#else
		for(u8_Col=0;u8_Col<COLUMNS_NUMBER;u8_Col++)
    16ac:	10 e0       	ldi	r17, 0x00	; 0
    16ae:	46 c0       	rjmp	.+140    	; 0x173c <KEYPAD_ReadKey+0xa6>
		{
			for(uint8_t au8_IterationNo=0;au8_IterationNo<COLUMNS_NUMBER;au8_IterationNo++)
			{
				DIO_WritePin(	gastr_KeypadConfig[au8_IterationNo+KEYPAD_COLUMN0].KeypadPort,
								gastr_KeypadConfig[au8_IterationNo+KEYPAD_COLUMN0].KeypadPin,
    16b0:	e0 2f       	mov	r30, r16
    16b2:	f0 e0       	ldi	r31, 0x00	; 0
    16b4:	34 96       	adiw	r30, 0x04	; 4
	#else
		for(u8_Col=0;u8_Col<COLUMNS_NUMBER;u8_Col++)
		{
			for(uint8_t au8_IterationNo=0;au8_IterationNo<COLUMNS_NUMBER;au8_IterationNo++)
			{
				DIO_WritePin(	gastr_KeypadConfig[au8_IterationNo+KEYPAD_COLUMN0].KeypadPort,
    16b6:	cf 01       	movw	r24, r30
    16b8:	88 0f       	add	r24, r24
    16ba:	99 1f       	adc	r25, r25
    16bc:	e8 0f       	add	r30, r24
    16be:	f9 1f       	adc	r31, r25
    16c0:	ef 58       	subi	r30, 0x8F	; 143
    16c2:	ff 4f       	sbci	r31, 0xFF	; 255
    16c4:	41 e0       	ldi	r20, 0x01	; 1
    16c6:	61 81       	ldd	r22, Z+1	; 0x01
    16c8:	80 81       	ld	r24, Z
    16ca:	0e 94 b6 10 	call	0x216c	; 0x216c <DIO_WritePin>
			*Key=gau8_Keypad[u8_Row][u8_Col];
		}				
	#else
		for(u8_Col=0;u8_Col<COLUMNS_NUMBER;u8_Col++)
		{
			for(uint8_t au8_IterationNo=0;au8_IterationNo<COLUMNS_NUMBER;au8_IterationNo++)
    16ce:	0f 5f       	subi	r16, 0xFF	; 255
    16d0:	01 c0       	rjmp	.+2      	; 0x16d4 <KEYPAD_ReadKey+0x3e>
    16d2:	00 e0       	ldi	r16, 0x00	; 0
    16d4:	03 30       	cpi	r16, 0x03	; 3
    16d6:	60 f3       	brcs	.-40     	; 0x16b0 <KEYPAD_ReadKey+0x1a>
								gastr_KeypadConfig[au8_IterationNo+KEYPAD_COLUMN0].KeypadPin,
								PIN_HIGH);				
			}
							
			DIO_WritePin(	gastr_KeypadConfig[KEYPAD_COLUMN0+u8_Col].KeypadPort,
							gastr_KeypadConfig[KEYPAD_COLUMN0+u8_Col].KeypadPin,
    16d8:	e1 2f       	mov	r30, r17
    16da:	f0 e0       	ldi	r31, 0x00	; 0
    16dc:	34 96       	adiw	r30, 0x04	; 4
				DIO_WritePin(	gastr_KeypadConfig[au8_IterationNo+KEYPAD_COLUMN0].KeypadPort,
								gastr_KeypadConfig[au8_IterationNo+KEYPAD_COLUMN0].KeypadPin,
								PIN_HIGH);				
			}
							
			DIO_WritePin(	gastr_KeypadConfig[KEYPAD_COLUMN0+u8_Col].KeypadPort,
    16de:	cf 01       	movw	r24, r30
    16e0:	88 0f       	add	r24, r24
    16e2:	99 1f       	adc	r25, r25
    16e4:	e8 0f       	add	r30, r24
    16e6:	f9 1f       	adc	r31, r25
    16e8:	ef 58       	subi	r30, 0x8F	; 143
    16ea:	ff 4f       	sbci	r31, 0xFF	; 255
    16ec:	40 e0       	ldi	r20, 0x00	; 0
    16ee:	61 81       	ldd	r22, Z+1	; 0x01
    16f0:	80 81       	ld	r24, Z
    16f2:	0e 94 b6 10 	call	0x216c	; 0x216c <DIO_WritePin>
							gastr_KeypadConfig[KEYPAD_COLUMN0+u8_Col].KeypadPin,
							PIN_LOW);
							
			for(uint8_t au8_IterationNo=0;au8_IterationNo<ROWS_NUMBER;au8_IterationNo++)
    16f6:	e1 2c       	mov	r14, r1
    16f8:	00 e0       	ldi	r16, 0x00	; 0
    16fa:	1a c0       	rjmp	.+52     	; 0x1730 <KEYPAD_ReadKey+0x9a>
			{
				uint8_t u8_Data;
				DIO_ReadPin(	gastr_KeypadConfig[au8_IterationNo+KEYPAD_ROW0].KeypadPort,
								gastr_KeypadConfig[au8_IterationNo+KEYPAD_ROW0].KeypadPin,
    16fc:	ee 2d       	mov	r30, r14
    16fe:	f0 e0       	ldi	r31, 0x00	; 0
							PIN_LOW);
							
			for(uint8_t au8_IterationNo=0;au8_IterationNo<ROWS_NUMBER;au8_IterationNo++)
			{
				uint8_t u8_Data;
				DIO_ReadPin(	gastr_KeypadConfig[au8_IterationNo+KEYPAD_ROW0].KeypadPort,
    1700:	cf 01       	movw	r24, r30
    1702:	88 0f       	add	r24, r24
    1704:	99 1f       	adc	r25, r25
    1706:	e8 0f       	add	r30, r24
    1708:	f9 1f       	adc	r31, r25
    170a:	ef 58       	subi	r30, 0x8F	; 143
    170c:	ff 4f       	sbci	r31, 0xFF	; 255
    170e:	ae 01       	movw	r20, r28
    1710:	4f 5f       	subi	r20, 0xFF	; 255
    1712:	5f 4f       	sbci	r21, 0xFF	; 255
    1714:	61 81       	ldd	r22, Z+1	; 0x01
    1716:	80 81       	ld	r24, Z
    1718:	0e 94 0f 11 	call	0x221e	; 0x221e <DIO_ReadPin>
								gastr_KeypadConfig[au8_IterationNo+KEYPAD_ROW0].KeypadPin,
								&u8_Data);
				u8_RowsVal|=u8_Data<<au8_IterationNo;
    171c:	89 81       	ldd	r24, Y+1	; 0x01
    171e:	90 e0       	ldi	r25, 0x00	; 0
    1720:	0e 2c       	mov	r0, r14
    1722:	02 c0       	rjmp	.+4      	; 0x1728 <KEYPAD_ReadKey+0x92>
    1724:	88 0f       	add	r24, r24
    1726:	99 1f       	adc	r25, r25
    1728:	0a 94       	dec	r0
    172a:	e2 f7       	brpl	.-8      	; 0x1724 <KEYPAD_ReadKey+0x8e>
    172c:	08 2b       	or	r16, r24
							
			DIO_WritePin(	gastr_KeypadConfig[KEYPAD_COLUMN0+u8_Col].KeypadPort,
							gastr_KeypadConfig[KEYPAD_COLUMN0+u8_Col].KeypadPin,
							PIN_LOW);
							
			for(uint8_t au8_IterationNo=0;au8_IterationNo<ROWS_NUMBER;au8_IterationNo++)
    172e:	e3 94       	inc	r14
    1730:	83 e0       	ldi	r24, 0x03	; 3
    1732:	8e 15       	cp	r24, r14
    1734:	18 f7       	brcc	.-58     	; 0x16fc <KEYPAD_ReadKey+0x66>
								gastr_KeypadConfig[au8_IterationNo+KEYPAD_ROW0].KeypadPin,
								&u8_Data);
				u8_RowsVal|=u8_Data<<au8_IterationNo;
			}
			
			if(u8_RowsVal!=FOUR_BITS_HIGH)
    1736:	0f 30       	cpi	r16, 0x0F	; 15
    1738:	21 f4       	brne	.+8      	; 0x1742 <KEYPAD_ReadKey+0xac>
			uint8_t u8_Row;
			KEYPAD_WhichRow(u8_RowsVal,&u8_Row);
			*Key=gau8_Keypad[u8_Row][u8_Col];
		}				
	#else
		for(u8_Col=0;u8_Col<COLUMNS_NUMBER;u8_Col++)
    173a:	1f 5f       	subi	r17, 0xFF	; 255
    173c:	13 30       	cpi	r17, 0x03	; 3
    173e:	48 f2       	brcs	.-110    	; 0x16d2 <KEYPAD_ReadKey+0x3c>
    1740:	00 e0       	ldi	r16, 0x00	; 0
				break;
			}
			u8_RowsVal=0;
		}
		
		if(u8_Col==COLUMNS_NUMBER)
    1742:	13 30       	cpi	r17, 0x03	; 3
    1744:	19 f4       	brne	.+6      	; 0x174c <KEYPAD_ReadKey+0xb6>
		{
			*Key=0;
    1746:	f6 01       	movw	r30, r12
    1748:	10 82       	st	Z, r1
    174a:	14 c0       	rjmp	.+40     	; 0x1774 <KEYPAD_ReadKey+0xde>
		}
		else
		{
			uint8_t u8_Row;
			KEYPAD_WhichRow(u8_RowsVal,&u8_Row);
    174c:	be 01       	movw	r22, r28
    174e:	6f 5f       	subi	r22, 0xFF	; 255
    1750:	7f 4f       	sbci	r23, 0xFF	; 255
    1752:	80 2f       	mov	r24, r16
    1754:	0e 94 2d 0b 	call	0x165a	; 0x165a <KEYPAD_WhichRow>
			*Key=gau8_Keypad[u8_Row][u8_Col];
    1758:	89 81       	ldd	r24, Y+1	; 0x01
    175a:	90 e0       	ldi	r25, 0x00	; 0
    175c:	fc 01       	movw	r30, r24
    175e:	ee 0f       	add	r30, r30
    1760:	ff 1f       	adc	r31, r31
    1762:	e8 0f       	add	r30, r24
    1764:	f9 1f       	adc	r31, r25
    1766:	eb 59       	subi	r30, 0x9B	; 155
    1768:	ff 4f       	sbci	r31, 0xFF	; 255
    176a:	e1 0f       	add	r30, r17
    176c:	f1 1d       	adc	r31, r1
    176e:	80 81       	ld	r24, Z
    1770:	f6 01       	movw	r30, r12
    1772:	80 83       	st	Z, r24
		}										
	#endif	
	return ERROR_OK;
}
    1774:	80 e0       	ldi	r24, 0x00	; 0
    1776:	0f 90       	pop	r0
    1778:	df 91       	pop	r29
    177a:	cf 91       	pop	r28
    177c:	1f 91       	pop	r17
    177e:	0f 91       	pop	r16
    1780:	ef 90       	pop	r14
    1782:	df 90       	pop	r13
    1784:	cf 90       	pop	r12
    1786:	08 95       	ret

00001788 <KEYPAD_MustPressed>:
	#endif	
	return ERROR_OK;
}

uint8_t KEYPAD_MustPressed(ptr_uint8_t Key)
{
    1788:	cf 93       	push	r28
    178a:	df 93       	push	r29
    178c:	ec 01       	movw	r28, r24
	do 
	{
		KEYPAD_ReadKey(Key); 	 
    178e:	ce 01       	movw	r24, r28
    1790:	0e 94 4b 0b 	call	0x1696	; 0x1696 <KEYPAD_ReadKey>
	}while (*Key==0);
    1794:	88 81       	ld	r24, Y
    1796:	88 23       	and	r24, r24
    1798:	d1 f3       	breq	.-12     	; 0x178e <KEYPAD_MustPressed+0x6>
	return ERROR_OK;
    179a:	80 e0       	ldi	r24, 0x00	; 0
    179c:	df 91       	pop	r29
    179e:	cf 91       	pop	r28
    17a0:	08 95       	ret

000017a2 <LCD_SendCommand>:
	LCD_SendCommand(LCD_DISPLAYON_CURSORON_NOBLINKING);
	//LCD_SendCommand(LCD_INC_AC);
}

uint8_t LCD_SendCommand(uint8_t Cmd)
{
    17a2:	ef 92       	push	r14
    17a4:	ff 92       	push	r15
    17a6:	1f 93       	push	r17
    17a8:	cf 93       	push	r28
    17aa:	df 93       	push	r29
    17ac:	cd b7       	in	r28, 0x3d	; 61
    17ae:	de b7       	in	r29, 0x3e	; 62
    17b0:	60 97       	sbiw	r28, 0x10	; 16
    17b2:	0f b6       	in	r0, 0x3f	; 63
    17b4:	f8 94       	cli
    17b6:	de bf       	out	0x3e, r29	; 62
    17b8:	0f be       	out	0x3f, r0	; 63
    17ba:	cd bf       	out	0x3d, r28	; 61
    17bc:	18 2f       	mov	r17, r24
	DIO_WritePin(	gastr_LCDConfig[LCD_RS_PIN].LCDPort,
    17be:	0f 2e       	mov	r0, r31
    17c0:	f6 e8       	ldi	r31, 0x86	; 134
    17c2:	ef 2e       	mov	r14, r31
    17c4:	f0 e0       	ldi	r31, 0x00	; 0
    17c6:	ff 2e       	mov	r15, r31
    17c8:	f0 2d       	mov	r31, r0
    17ca:	40 e0       	ldi	r20, 0x00	; 0
    17cc:	f7 01       	movw	r30, r14
    17ce:	61 81       	ldd	r22, Z+1	; 0x01
    17d0:	80 81       	ld	r24, Z
    17d2:	0e 94 b6 10 	call	0x216c	; 0x216c <DIO_WritePin>
	gastr_LCDConfig[LCD_RS_PIN].LCDPin,
	IR );
	
	#if LCD_MODE==LCD4BITSMODE
	DIO_WritePin(	gastr_LCDConfig[LCD_D4_PIN].LCDPort,
    17d6:	14 fb       	bst	r17, 4
    17d8:	44 27       	eor	r20, r20
    17da:	40 f9       	bld	r20, 0
    17dc:	f7 01       	movw	r30, r14
    17de:	62 85       	ldd	r22, Z+10	; 0x0a
    17e0:	81 85       	ldd	r24, Z+9	; 0x09
    17e2:	0e 94 b6 10 	call	0x216c	; 0x216c <DIO_WritePin>
	gastr_LCDConfig[LCD_D4_PIN].LCDPin,
	BIT_GET(Cmd,4) );
	DIO_WritePin(	gastr_LCDConfig[LCD_D5_PIN].LCDPort,
    17e6:	15 fb       	bst	r17, 5
    17e8:	44 27       	eor	r20, r20
    17ea:	40 f9       	bld	r20, 0
    17ec:	f7 01       	movw	r30, r14
    17ee:	65 85       	ldd	r22, Z+13	; 0x0d
    17f0:	84 85       	ldd	r24, Z+12	; 0x0c
    17f2:	0e 94 b6 10 	call	0x216c	; 0x216c <DIO_WritePin>
	gastr_LCDConfig[LCD_D5_PIN].LCDPin,
	BIT_GET(Cmd,5) );
	DIO_WritePin(	gastr_LCDConfig[LCD_D6_PIN].LCDPort,
    17f6:	16 fb       	bst	r17, 6
    17f8:	44 27       	eor	r20, r20
    17fa:	40 f9       	bld	r20, 0
    17fc:	f7 01       	movw	r30, r14
    17fe:	60 89       	ldd	r22, Z+16	; 0x10
    1800:	87 85       	ldd	r24, Z+15	; 0x0f
    1802:	0e 94 b6 10 	call	0x216c	; 0x216c <DIO_WritePin>
	gastr_LCDConfig[LCD_D6_PIN].LCDPin,
	BIT_GET(Cmd,6) );
	DIO_WritePin(	gastr_LCDConfig[LCD_D7_PIN].LCDPort,
    1806:	41 2f       	mov	r20, r17
    1808:	44 1f       	adc	r20, r20
    180a:	44 27       	eor	r20, r20
    180c:	44 1f       	adc	r20, r20
    180e:	f7 01       	movw	r30, r14
    1810:	63 89       	ldd	r22, Z+19	; 0x13
    1812:	82 89       	ldd	r24, Z+18	; 0x12
    1814:	0e 94 b6 10 	call	0x216c	; 0x216c <DIO_WritePin>
	gastr_LCDConfig[LCD_D7_PIN].LCDPin,
	BIT_GET(Cmd,7) );
	
	//Enable
	DIO_WritePin(	gastr_LCDConfig[LCD_EN_PIN].LCDPort,
    1818:	41 e0       	ldi	r20, 0x01	; 1
    181a:	f7 01       	movw	r30, r14
    181c:	67 81       	ldd	r22, Z+7	; 0x07
    181e:	86 81       	ldd	r24, Z+6	; 0x06
    1820:	0e 94 b6 10 	call	0x216c	; 0x216c <DIO_WritePin>
	gastr_LCDConfig[LCD_EN_PIN].LCDPin,
	PIN_HIGH );
	for(volatile uint32_t j=0;j<1;j++)
    1824:	18 8a       	std	Y+16, r1	; 0x10
    1826:	1f 86       	std	Y+15, r1	; 0x0f
    1828:	12 c0       	rjmp	.+36     	; 0x184e <LCD_SendCommand+0xac>
	{
		for(volatile uint32_t i=0;i<2666;i++);
    182a:	1e 86       	std	Y+14, r1	; 0x0e
    182c:	1d 86       	std	Y+13, r1	; 0x0d
    182e:	05 c0       	rjmp	.+10     	; 0x183a <LCD_SendCommand+0x98>
    1830:	8d 85       	ldd	r24, Y+13	; 0x0d
    1832:	9e 85       	ldd	r25, Y+14	; 0x0e
    1834:	01 96       	adiw	r24, 0x01	; 1
    1836:	9e 87       	std	Y+14, r25	; 0x0e
    1838:	8d 87       	std	Y+13, r24	; 0x0d
    183a:	8d 85       	ldd	r24, Y+13	; 0x0d
    183c:	9e 85       	ldd	r25, Y+14	; 0x0e
    183e:	8a 36       	cpi	r24, 0x6A	; 106
    1840:	9a 40       	sbci	r25, 0x0A	; 10
    1842:	b0 f3       	brcs	.-20     	; 0x1830 <LCD_SendCommand+0x8e>
	
	//Enable
	DIO_WritePin(	gastr_LCDConfig[LCD_EN_PIN].LCDPort,
	gastr_LCDConfig[LCD_EN_PIN].LCDPin,
	PIN_HIGH );
	for(volatile uint32_t j=0;j<1;j++)
    1844:	8f 85       	ldd	r24, Y+15	; 0x0f
    1846:	98 89       	ldd	r25, Y+16	; 0x10
    1848:	01 96       	adiw	r24, 0x01	; 1
    184a:	98 8b       	std	Y+16, r25	; 0x10
    184c:	8f 87       	std	Y+15, r24	; 0x0f
    184e:	8f 85       	ldd	r24, Y+15	; 0x0f
    1850:	98 89       	ldd	r25, Y+16	; 0x10
    1852:	89 2b       	or	r24, r25
    1854:	51 f3       	breq	.-44     	; 0x182a <LCD_SendCommand+0x88>
	{
		for(volatile uint32_t i=0;i<2666;i++);
	}
	DIO_WritePin(	gastr_LCDConfig[LCD_EN_PIN].LCDPort,
    1856:	e6 e8       	ldi	r30, 0x86	; 134
    1858:	f0 e0       	ldi	r31, 0x00	; 0
    185a:	40 e0       	ldi	r20, 0x00	; 0
    185c:	67 81       	ldd	r22, Z+7	; 0x07
    185e:	86 81       	ldd	r24, Z+6	; 0x06
    1860:	0e 94 b6 10 	call	0x216c	; 0x216c <DIO_WritePin>
	gastr_LCDConfig[LCD_EN_PIN].LCDPin,
	PIN_LOW );
	for(volatile uint32_t j=0;j<1;j++)
    1864:	1c 86       	std	Y+12, r1	; 0x0c
    1866:	1b 86       	std	Y+11, r1	; 0x0b
    1868:	12 c0       	rjmp	.+36     	; 0x188e <LCD_SendCommand+0xec>
	{
		for(volatile uint32_t i=0;i<2666;i++);
    186a:	1a 86       	std	Y+10, r1	; 0x0a
    186c:	19 86       	std	Y+9, r1	; 0x09
    186e:	05 c0       	rjmp	.+10     	; 0x187a <LCD_SendCommand+0xd8>
    1870:	89 85       	ldd	r24, Y+9	; 0x09
    1872:	9a 85       	ldd	r25, Y+10	; 0x0a
    1874:	01 96       	adiw	r24, 0x01	; 1
    1876:	9a 87       	std	Y+10, r25	; 0x0a
    1878:	89 87       	std	Y+9, r24	; 0x09
    187a:	89 85       	ldd	r24, Y+9	; 0x09
    187c:	9a 85       	ldd	r25, Y+10	; 0x0a
    187e:	8a 36       	cpi	r24, 0x6A	; 106
    1880:	9a 40       	sbci	r25, 0x0A	; 10
    1882:	b0 f3       	brcs	.-20     	; 0x1870 <LCD_SendCommand+0xce>
		for(volatile uint32_t i=0;i<2666;i++);
	}
	DIO_WritePin(	gastr_LCDConfig[LCD_EN_PIN].LCDPort,
	gastr_LCDConfig[LCD_EN_PIN].LCDPin,
	PIN_LOW );
	for(volatile uint32_t j=0;j<1;j++)
    1884:	8b 85       	ldd	r24, Y+11	; 0x0b
    1886:	9c 85       	ldd	r25, Y+12	; 0x0c
    1888:	01 96       	adiw	r24, 0x01	; 1
    188a:	9c 87       	std	Y+12, r25	; 0x0c
    188c:	8b 87       	std	Y+11, r24	; 0x0b
    188e:	8b 85       	ldd	r24, Y+11	; 0x0b
    1890:	9c 85       	ldd	r25, Y+12	; 0x0c
    1892:	89 2b       	or	r24, r25
    1894:	51 f3       	breq	.-44     	; 0x186a <LCD_SendCommand+0xc8>
	{
		for(volatile uint32_t i=0;i<2666;i++);
	}
	
	
	DIO_WritePin(	gastr_LCDConfig[LCD_D4_PIN].LCDPort,
    1896:	41 2f       	mov	r20, r17
    1898:	41 70       	andi	r20, 0x01	; 1
    189a:	0f 2e       	mov	r0, r31
    189c:	f6 e8       	ldi	r31, 0x86	; 134
    189e:	ef 2e       	mov	r14, r31
    18a0:	f0 e0       	ldi	r31, 0x00	; 0
    18a2:	ff 2e       	mov	r15, r31
    18a4:	f0 2d       	mov	r31, r0
    18a6:	f7 01       	movw	r30, r14
    18a8:	62 85       	ldd	r22, Z+10	; 0x0a
    18aa:	81 85       	ldd	r24, Z+9	; 0x09
    18ac:	0e 94 b6 10 	call	0x216c	; 0x216c <DIO_WritePin>
	gastr_LCDConfig[LCD_D4_PIN].LCDPin,
	BIT_GET(Cmd,0) );
	DIO_WritePin(	gastr_LCDConfig[LCD_D5_PIN].LCDPort,
    18b0:	11 fb       	bst	r17, 1
    18b2:	44 27       	eor	r20, r20
    18b4:	40 f9       	bld	r20, 0
    18b6:	f7 01       	movw	r30, r14
    18b8:	65 85       	ldd	r22, Z+13	; 0x0d
    18ba:	84 85       	ldd	r24, Z+12	; 0x0c
    18bc:	0e 94 b6 10 	call	0x216c	; 0x216c <DIO_WritePin>
	gastr_LCDConfig[LCD_D5_PIN].LCDPin,
	BIT_GET(Cmd,1) );
	DIO_WritePin(	gastr_LCDConfig[LCD_D6_PIN].LCDPort,
    18c0:	12 fb       	bst	r17, 2
    18c2:	44 27       	eor	r20, r20
    18c4:	40 f9       	bld	r20, 0
    18c6:	f7 01       	movw	r30, r14
    18c8:	60 89       	ldd	r22, Z+16	; 0x10
    18ca:	87 85       	ldd	r24, Z+15	; 0x0f
    18cc:	0e 94 b6 10 	call	0x216c	; 0x216c <DIO_WritePin>
	gastr_LCDConfig[LCD_D6_PIN].LCDPin,
	BIT_GET(Cmd,2) );
	DIO_WritePin(	gastr_LCDConfig[LCD_D7_PIN].LCDPort,
    18d0:	13 fb       	bst	r17, 3
    18d2:	44 27       	eor	r20, r20
    18d4:	40 f9       	bld	r20, 0
    18d6:	f7 01       	movw	r30, r14
    18d8:	63 89       	ldd	r22, Z+19	; 0x13
    18da:	82 89       	ldd	r24, Z+18	; 0x12
    18dc:	0e 94 b6 10 	call	0x216c	; 0x216c <DIO_WritePin>
	gastr_LCDConfig[LCD_D7_PIN].LCDPin,
	BIT_GET(Cmd,3) );

	//Enable
	DIO_WritePin(	gastr_LCDConfig[LCD_EN_PIN].LCDPort,
    18e0:	41 e0       	ldi	r20, 0x01	; 1
    18e2:	f7 01       	movw	r30, r14
    18e4:	67 81       	ldd	r22, Z+7	; 0x07
    18e6:	86 81       	ldd	r24, Z+6	; 0x06
    18e8:	0e 94 b6 10 	call	0x216c	; 0x216c <DIO_WritePin>
	gastr_LCDConfig[LCD_EN_PIN].LCDPin,
	PIN_HIGH );
	for(volatile uint32_t j=0;j<1;j++)
    18ec:	18 86       	std	Y+8, r1	; 0x08
    18ee:	1f 82       	std	Y+7, r1	; 0x07
    18f0:	12 c0       	rjmp	.+36     	; 0x1916 <LCD_SendCommand+0x174>
	{
		for(volatile uint32_t i=0;i<2666;i++);
    18f2:	1e 82       	std	Y+6, r1	; 0x06
    18f4:	1d 82       	std	Y+5, r1	; 0x05
    18f6:	05 c0       	rjmp	.+10     	; 0x1902 <LCD_SendCommand+0x160>
    18f8:	8d 81       	ldd	r24, Y+5	; 0x05
    18fa:	9e 81       	ldd	r25, Y+6	; 0x06
    18fc:	01 96       	adiw	r24, 0x01	; 1
    18fe:	9e 83       	std	Y+6, r25	; 0x06
    1900:	8d 83       	std	Y+5, r24	; 0x05
    1902:	8d 81       	ldd	r24, Y+5	; 0x05
    1904:	9e 81       	ldd	r25, Y+6	; 0x06
    1906:	8a 36       	cpi	r24, 0x6A	; 106
    1908:	9a 40       	sbci	r25, 0x0A	; 10
    190a:	b0 f3       	brcs	.-20     	; 0x18f8 <LCD_SendCommand+0x156>

	//Enable
	DIO_WritePin(	gastr_LCDConfig[LCD_EN_PIN].LCDPort,
	gastr_LCDConfig[LCD_EN_PIN].LCDPin,
	PIN_HIGH );
	for(volatile uint32_t j=0;j<1;j++)
    190c:	8f 81       	ldd	r24, Y+7	; 0x07
    190e:	98 85       	ldd	r25, Y+8	; 0x08
    1910:	01 96       	adiw	r24, 0x01	; 1
    1912:	98 87       	std	Y+8, r25	; 0x08
    1914:	8f 83       	std	Y+7, r24	; 0x07
    1916:	8f 81       	ldd	r24, Y+7	; 0x07
    1918:	98 85       	ldd	r25, Y+8	; 0x08
    191a:	89 2b       	or	r24, r25
    191c:	51 f3       	breq	.-44     	; 0x18f2 <LCD_SendCommand+0x150>
	{
		for(volatile uint32_t i=0;i<2666;i++);
	}
	DIO_WritePin(	gastr_LCDConfig[LCD_EN_PIN].LCDPort,
    191e:	e6 e8       	ldi	r30, 0x86	; 134
    1920:	f0 e0       	ldi	r31, 0x00	; 0
    1922:	40 e0       	ldi	r20, 0x00	; 0
    1924:	67 81       	ldd	r22, Z+7	; 0x07
    1926:	86 81       	ldd	r24, Z+6	; 0x06
    1928:	0e 94 b6 10 	call	0x216c	; 0x216c <DIO_WritePin>
	gastr_LCDConfig[LCD_EN_PIN].LCDPin,
	PIN_LOW );
	for(volatile uint32_t j=0;j<1;j++)
    192c:	1c 82       	std	Y+4, r1	; 0x04
    192e:	1b 82       	std	Y+3, r1	; 0x03
    1930:	12 c0       	rjmp	.+36     	; 0x1956 <LCD_SendCommand+0x1b4>
	{
		for(volatile uint32_t i=0;i<2666;i++);
    1932:	1a 82       	std	Y+2, r1	; 0x02
    1934:	19 82       	std	Y+1, r1	; 0x01
    1936:	05 c0       	rjmp	.+10     	; 0x1942 <LCD_SendCommand+0x1a0>
    1938:	89 81       	ldd	r24, Y+1	; 0x01
    193a:	9a 81       	ldd	r25, Y+2	; 0x02
    193c:	01 96       	adiw	r24, 0x01	; 1
    193e:	9a 83       	std	Y+2, r25	; 0x02
    1940:	89 83       	std	Y+1, r24	; 0x01
    1942:	89 81       	ldd	r24, Y+1	; 0x01
    1944:	9a 81       	ldd	r25, Y+2	; 0x02
    1946:	8a 36       	cpi	r24, 0x6A	; 106
    1948:	9a 40       	sbci	r25, 0x0A	; 10
    194a:	b0 f3       	brcs	.-20     	; 0x1938 <LCD_SendCommand+0x196>
		for(volatile uint32_t i=0;i<2666;i++);
	}
	DIO_WritePin(	gastr_LCDConfig[LCD_EN_PIN].LCDPort,
	gastr_LCDConfig[LCD_EN_PIN].LCDPin,
	PIN_LOW );
	for(volatile uint32_t j=0;j<1;j++)
    194c:	8b 81       	ldd	r24, Y+3	; 0x03
    194e:	9c 81       	ldd	r25, Y+4	; 0x04
    1950:	01 96       	adiw	r24, 0x01	; 1
    1952:	9c 83       	std	Y+4, r25	; 0x04
    1954:	8b 83       	std	Y+3, r24	; 0x03
    1956:	8b 81       	ldd	r24, Y+3	; 0x03
    1958:	9c 81       	ldd	r25, Y+4	; 0x04
    195a:	89 2b       	or	r24, r25
    195c:	51 f3       	breq	.-44     	; 0x1932 <LCD_SendCommand+0x190>
	gastr_LCDConfig[LCD_EN_PIN].LCDPin,
	PIN_LOW );
	for(uint32_t i=0;i<1000;i++);
	
	#endif
}
    195e:	60 96       	adiw	r28, 0x10	; 16
    1960:	0f b6       	in	r0, 0x3f	; 63
    1962:	f8 94       	cli
    1964:	de bf       	out	0x3e, r29	; 62
    1966:	0f be       	out	0x3f, r0	; 63
    1968:	cd bf       	out	0x3d, r28	; 61
    196a:	df 91       	pop	r29
    196c:	cf 91       	pop	r28
    196e:	1f 91       	pop	r17
    1970:	ff 90       	pop	r15
    1972:	ef 90       	pop	r14
    1974:	08 95       	ret

00001976 <LCD_Init>:
#include "LCD.h"

extern Str_LCDConfig_t gastr_LCDConfig[];

uint8_t LCD_Init(void)
{
    1976:	0f 93       	push	r16
    1978:	1f 93       	push	r17
    197a:	cf 93       	push	r28
    197c:	df 93       	push	r29
    197e:	cd b7       	in	r28, 0x3d	; 61
    1980:	de b7       	in	r29, 0x3e	; 62
    1982:	68 97       	sbiw	r28, 0x18	; 24
    1984:	0f b6       	in	r0, 0x3f	; 63
    1986:	f8 94       	cli
    1988:	de bf       	out	0x3e, r29	; 62
    198a:	0f be       	out	0x3f, r0	; 63
    198c:	cd bf       	out	0x3d, r28	; 61
	for(uint8_t au8_IterationNo=0;au8_IterationNo<LCD_PINS_NUMBER;au8_IterationNo++)
    198e:	10 e0       	ldi	r17, 0x00	; 0
    1990:	0f c0       	rjmp	.+30     	; 0x19b0 <LCD_Init+0x3a>
	{
		DIO_SetPinDirection(	gastr_LCDConfig[au8_IterationNo].LCDPort,
    1992:	81 2f       	mov	r24, r17
    1994:	90 e0       	ldi	r25, 0x00	; 0
    1996:	fc 01       	movw	r30, r24
    1998:	ee 0f       	add	r30, r30
    199a:	ff 1f       	adc	r31, r31
    199c:	e8 0f       	add	r30, r24
    199e:	f9 1f       	adc	r31, r25
    19a0:	ea 57       	subi	r30, 0x7A	; 122
    19a2:	ff 4f       	sbci	r31, 0xFF	; 255
    19a4:	42 81       	ldd	r20, Z+2	; 0x02
    19a6:	61 81       	ldd	r22, Z+1	; 0x01
    19a8:	80 81       	ld	r24, Z
    19aa:	0e 94 5d 10 	call	0x20ba	; 0x20ba <DIO_SetPinDirection>

extern Str_LCDConfig_t gastr_LCDConfig[];

uint8_t LCD_Init(void)
{
	for(uint8_t au8_IterationNo=0;au8_IterationNo<LCD_PINS_NUMBER;au8_IterationNo++)
    19ae:	1f 5f       	subi	r17, 0xFF	; 255
    19b0:	17 30       	cpi	r17, 0x07	; 7
    19b2:	78 f3       	brcs	.-34     	; 0x1992 <LCD_Init+0x1c>
		gastr_LCDConfig[au8_IterationNo].LCDPin,
		gastr_LCDConfig[au8_IterationNo].LCDDirection );
	}
	
	#ifdef LCD_RW_PIN
	DIO_WritePin(	gastr_LCDConfig[LCD_RW_PIN].LCDPort,
    19b4:	06 e8       	ldi	r16, 0x86	; 134
    19b6:	10 e0       	ldi	r17, 0x00	; 0
    19b8:	40 e0       	ldi	r20, 0x00	; 0
    19ba:	f8 01       	movw	r30, r16
    19bc:	64 81       	ldd	r22, Z+4	; 0x04
    19be:	83 81       	ldd	r24, Z+3	; 0x03
    19c0:	0e 94 b6 10 	call	0x216c	; 0x216c <DIO_WritePin>
	gastr_LCDConfig[LCD_RW_PIN].LCDPin,
	WRITE );//Write on  LCD
	#endif
	
	DIO_WritePin(	gastr_LCDConfig[LCD_EN_PIN].LCDPort,
    19c4:	41 e0       	ldi	r20, 0x01	; 1
    19c6:	f8 01       	movw	r30, r16
    19c8:	67 81       	ldd	r22, Z+7	; 0x07
    19ca:	86 81       	ldd	r24, Z+6	; 0x06
    19cc:	0e 94 b6 10 	call	0x216c	; 0x216c <DIO_WritePin>
	gastr_LCDConfig[LCD_EN_PIN].LCDPin,
	PIN_HIGH );
	for(volatile uint32_t j=0;j<20;j++)
    19d0:	18 8e       	std	Y+24, r1	; 0x18
    19d2:	1f 8a       	std	Y+23, r1	; 0x17
    19d4:	12 c0       	rjmp	.+36     	; 0x19fa <LCD_Init+0x84>
	{
		for(volatile uint32_t i=0;i<2666;i++);
    19d6:	1e 8a       	std	Y+22, r1	; 0x16
    19d8:	1d 8a       	std	Y+21, r1	; 0x15
    19da:	05 c0       	rjmp	.+10     	; 0x19e6 <LCD_Init+0x70>
    19dc:	8d 89       	ldd	r24, Y+21	; 0x15
    19de:	9e 89       	ldd	r25, Y+22	; 0x16
    19e0:	01 96       	adiw	r24, 0x01	; 1
    19e2:	9e 8b       	std	Y+22, r25	; 0x16
    19e4:	8d 8b       	std	Y+21, r24	; 0x15
    19e6:	8d 89       	ldd	r24, Y+21	; 0x15
    19e8:	9e 89       	ldd	r25, Y+22	; 0x16
    19ea:	8a 36       	cpi	r24, 0x6A	; 106
    19ec:	9a 40       	sbci	r25, 0x0A	; 10
    19ee:	b0 f3       	brcs	.-20     	; 0x19dc <LCD_Init+0x66>
	#endif
	
	DIO_WritePin(	gastr_LCDConfig[LCD_EN_PIN].LCDPort,
	gastr_LCDConfig[LCD_EN_PIN].LCDPin,
	PIN_HIGH );
	for(volatile uint32_t j=0;j<20;j++)
    19f0:	8f 89       	ldd	r24, Y+23	; 0x17
    19f2:	98 8d       	ldd	r25, Y+24	; 0x18
    19f4:	01 96       	adiw	r24, 0x01	; 1
    19f6:	98 8f       	std	Y+24, r25	; 0x18
    19f8:	8f 8b       	std	Y+23, r24	; 0x17
    19fa:	8f 89       	ldd	r24, Y+23	; 0x17
    19fc:	98 8d       	ldd	r25, Y+24	; 0x18
    19fe:	44 97       	sbiw	r24, 0x14	; 20
    1a00:	50 f3       	brcs	.-44     	; 0x19d6 <LCD_Init+0x60>
	{
		for(volatile uint32_t i=0;i<2666;i++);
	}
	
	#if LCD_MODE==LCD4BITSMODE
	LCD_SendCommand(0X03);
    1a02:	83 e0       	ldi	r24, 0x03	; 3
    1a04:	0e 94 d1 0b 	call	0x17a2	; 0x17a2 <LCD_SendCommand>
	for(volatile uint32_t j=0;j<5;j++)
    1a08:	1c 8a       	std	Y+20, r1	; 0x14
    1a0a:	1b 8a       	std	Y+19, r1	; 0x13
    1a0c:	12 c0       	rjmp	.+36     	; 0x1a32 <LCD_Init+0xbc>
	{
		for(volatile uint32_t i=0;i<2666;i++);
    1a0e:	1a 8a       	std	Y+18, r1	; 0x12
    1a10:	19 8a       	std	Y+17, r1	; 0x11
    1a12:	05 c0       	rjmp	.+10     	; 0x1a1e <LCD_Init+0xa8>
    1a14:	89 89       	ldd	r24, Y+17	; 0x11
    1a16:	9a 89       	ldd	r25, Y+18	; 0x12
    1a18:	01 96       	adiw	r24, 0x01	; 1
    1a1a:	9a 8b       	std	Y+18, r25	; 0x12
    1a1c:	89 8b       	std	Y+17, r24	; 0x11
    1a1e:	89 89       	ldd	r24, Y+17	; 0x11
    1a20:	9a 89       	ldd	r25, Y+18	; 0x12
    1a22:	8a 36       	cpi	r24, 0x6A	; 106
    1a24:	9a 40       	sbci	r25, 0x0A	; 10
    1a26:	b0 f3       	brcs	.-20     	; 0x1a14 <LCD_Init+0x9e>
		for(volatile uint32_t i=0;i<2666;i++);
	}
	
	#if LCD_MODE==LCD4BITSMODE
	LCD_SendCommand(0X03);
	for(volatile uint32_t j=0;j<5;j++)
    1a28:	8b 89       	ldd	r24, Y+19	; 0x13
    1a2a:	9c 89       	ldd	r25, Y+20	; 0x14
    1a2c:	01 96       	adiw	r24, 0x01	; 1
    1a2e:	9c 8b       	std	Y+20, r25	; 0x14
    1a30:	8b 8b       	std	Y+19, r24	; 0x13
    1a32:	8b 89       	ldd	r24, Y+19	; 0x13
    1a34:	9c 89       	ldd	r25, Y+20	; 0x14
    1a36:	05 97       	sbiw	r24, 0x05	; 5
    1a38:	50 f3       	brcs	.-44     	; 0x1a0e <LCD_Init+0x98>
	{
		for(volatile uint32_t i=0;i<2666;i++);
	}
	LCD_SendCommand(0X03);
    1a3a:	83 e0       	ldi	r24, 0x03	; 3
    1a3c:	0e 94 d1 0b 	call	0x17a2	; 0x17a2 <LCD_SendCommand>
	for(volatile uint32_t j=0;j<150;j++)
    1a40:	18 8a       	std	Y+16, r1	; 0x10
    1a42:	1f 86       	std	Y+15, r1	; 0x0f
    1a44:	11 c0       	rjmp	.+34     	; 0x1a68 <LCD_Init+0xf2>
	{
		for(volatile uint32_t i=0;i<3;i++);
    1a46:	1e 86       	std	Y+14, r1	; 0x0e
    1a48:	1d 86       	std	Y+13, r1	; 0x0d
    1a4a:	05 c0       	rjmp	.+10     	; 0x1a56 <LCD_Init+0xe0>
    1a4c:	8d 85       	ldd	r24, Y+13	; 0x0d
    1a4e:	9e 85       	ldd	r25, Y+14	; 0x0e
    1a50:	01 96       	adiw	r24, 0x01	; 1
    1a52:	9e 87       	std	Y+14, r25	; 0x0e
    1a54:	8d 87       	std	Y+13, r24	; 0x0d
    1a56:	8d 85       	ldd	r24, Y+13	; 0x0d
    1a58:	9e 85       	ldd	r25, Y+14	; 0x0e
    1a5a:	03 97       	sbiw	r24, 0x03	; 3
    1a5c:	b8 f3       	brcs	.-18     	; 0x1a4c <LCD_Init+0xd6>
	for(volatile uint32_t j=0;j<5;j++)
	{
		for(volatile uint32_t i=0;i<2666;i++);
	}
	LCD_SendCommand(0X03);
	for(volatile uint32_t j=0;j<150;j++)
    1a5e:	8f 85       	ldd	r24, Y+15	; 0x0f
    1a60:	98 89       	ldd	r25, Y+16	; 0x10
    1a62:	01 96       	adiw	r24, 0x01	; 1
    1a64:	98 8b       	std	Y+16, r25	; 0x10
    1a66:	8f 87       	std	Y+15, r24	; 0x0f
    1a68:	8f 85       	ldd	r24, Y+15	; 0x0f
    1a6a:	98 89       	ldd	r25, Y+16	; 0x10
    1a6c:	86 39       	cpi	r24, 0x96	; 150
    1a6e:	91 05       	cpc	r25, r1
    1a70:	50 f3       	brcs	.-44     	; 0x1a46 <LCD_Init+0xd0>
	{
		for(volatile uint32_t i=0;i<3;i++);
	}	
	LCD_SendCommand(0X03);
    1a72:	83 e0       	ldi	r24, 0x03	; 3
    1a74:	0e 94 d1 0b 	call	0x17a2	; 0x17a2 <LCD_SendCommand>
	for(volatile uint32_t j=0;j<150;j++)
    1a78:	1c 86       	std	Y+12, r1	; 0x0c
    1a7a:	1b 86       	std	Y+11, r1	; 0x0b
    1a7c:	11 c0       	rjmp	.+34     	; 0x1aa0 <LCD_Init+0x12a>
	{
		for(volatile uint32_t i=0;i<3;i++);
    1a7e:	1a 86       	std	Y+10, r1	; 0x0a
    1a80:	19 86       	std	Y+9, r1	; 0x09
    1a82:	05 c0       	rjmp	.+10     	; 0x1a8e <LCD_Init+0x118>
    1a84:	89 85       	ldd	r24, Y+9	; 0x09
    1a86:	9a 85       	ldd	r25, Y+10	; 0x0a
    1a88:	01 96       	adiw	r24, 0x01	; 1
    1a8a:	9a 87       	std	Y+10, r25	; 0x0a
    1a8c:	89 87       	std	Y+9, r24	; 0x09
    1a8e:	89 85       	ldd	r24, Y+9	; 0x09
    1a90:	9a 85       	ldd	r25, Y+10	; 0x0a
    1a92:	03 97       	sbiw	r24, 0x03	; 3
    1a94:	b8 f3       	brcs	.-18     	; 0x1a84 <LCD_Init+0x10e>
	for(volatile uint32_t j=0;j<150;j++)
	{
		for(volatile uint32_t i=0;i<3;i++);
	}	
	LCD_SendCommand(0X03);
	for(volatile uint32_t j=0;j<150;j++)
    1a96:	8b 85       	ldd	r24, Y+11	; 0x0b
    1a98:	9c 85       	ldd	r25, Y+12	; 0x0c
    1a9a:	01 96       	adiw	r24, 0x01	; 1
    1a9c:	9c 87       	std	Y+12, r25	; 0x0c
    1a9e:	8b 87       	std	Y+11, r24	; 0x0b
    1aa0:	8b 85       	ldd	r24, Y+11	; 0x0b
    1aa2:	9c 85       	ldd	r25, Y+12	; 0x0c
    1aa4:	86 39       	cpi	r24, 0x96	; 150
    1aa6:	91 05       	cpc	r25, r1
    1aa8:	50 f3       	brcs	.-44     	; 0x1a7e <LCD_Init+0x108>
	{
		for(volatile uint32_t i=0;i<3;i++);
	}	
	LCD_SendCommand(0X02);
    1aaa:	82 e0       	ldi	r24, 0x02	; 2
    1aac:	0e 94 d1 0b 	call	0x17a2	; 0x17a2 <LCD_SendCommand>
	for(volatile uint32_t j=0;j<150;j++)
    1ab0:	18 86       	std	Y+8, r1	; 0x08
    1ab2:	1f 82       	std	Y+7, r1	; 0x07
    1ab4:	11 c0       	rjmp	.+34     	; 0x1ad8 <LCD_Init+0x162>
	{
		for(volatile uint32_t i=0;i<3;i++);
    1ab6:	1e 82       	std	Y+6, r1	; 0x06
    1ab8:	1d 82       	std	Y+5, r1	; 0x05
    1aba:	05 c0       	rjmp	.+10     	; 0x1ac6 <LCD_Init+0x150>
    1abc:	8d 81       	ldd	r24, Y+5	; 0x05
    1abe:	9e 81       	ldd	r25, Y+6	; 0x06
    1ac0:	01 96       	adiw	r24, 0x01	; 1
    1ac2:	9e 83       	std	Y+6, r25	; 0x06
    1ac4:	8d 83       	std	Y+5, r24	; 0x05
    1ac6:	8d 81       	ldd	r24, Y+5	; 0x05
    1ac8:	9e 81       	ldd	r25, Y+6	; 0x06
    1aca:	03 97       	sbiw	r24, 0x03	; 3
    1acc:	b8 f3       	brcs	.-18     	; 0x1abc <LCD_Init+0x146>
	for(volatile uint32_t j=0;j<150;j++)
	{
		for(volatile uint32_t i=0;i<3;i++);
	}	
	LCD_SendCommand(0X02);
	for(volatile uint32_t j=0;j<150;j++)
    1ace:	8f 81       	ldd	r24, Y+7	; 0x07
    1ad0:	98 85       	ldd	r25, Y+8	; 0x08
    1ad2:	01 96       	adiw	r24, 0x01	; 1
    1ad4:	98 87       	std	Y+8, r25	; 0x08
    1ad6:	8f 83       	std	Y+7, r24	; 0x07
    1ad8:	8f 81       	ldd	r24, Y+7	; 0x07
    1ada:	98 85       	ldd	r25, Y+8	; 0x08
    1adc:	86 39       	cpi	r24, 0x96	; 150
    1ade:	91 05       	cpc	r25, r1
    1ae0:	50 f3       	brcs	.-44     	; 0x1ab6 <LCD_Init+0x140>
	{
		for(volatile uint32_t i=0;i<3;i++);
	}	
	LCD_SendCommand(LCD_4BITS_2LINE_5X8);
    1ae2:	88 e2       	ldi	r24, 0x28	; 40
    1ae4:	0e 94 d1 0b 	call	0x17a2	; 0x17a2 <LCD_SendCommand>
	for(volatile uint32_t j=0;j<150;j++)
    1ae8:	1c 82       	std	Y+4, r1	; 0x04
    1aea:	1b 82       	std	Y+3, r1	; 0x03
    1aec:	11 c0       	rjmp	.+34     	; 0x1b10 <LCD_Init+0x19a>
	{
		for(volatile uint32_t i=0;i<3;i++);
    1aee:	1a 82       	std	Y+2, r1	; 0x02
    1af0:	19 82       	std	Y+1, r1	; 0x01
    1af2:	05 c0       	rjmp	.+10     	; 0x1afe <LCD_Init+0x188>
    1af4:	89 81       	ldd	r24, Y+1	; 0x01
    1af6:	9a 81       	ldd	r25, Y+2	; 0x02
    1af8:	01 96       	adiw	r24, 0x01	; 1
    1afa:	9a 83       	std	Y+2, r25	; 0x02
    1afc:	89 83       	std	Y+1, r24	; 0x01
    1afe:	89 81       	ldd	r24, Y+1	; 0x01
    1b00:	9a 81       	ldd	r25, Y+2	; 0x02
    1b02:	03 97       	sbiw	r24, 0x03	; 3
    1b04:	b8 f3       	brcs	.-18     	; 0x1af4 <LCD_Init+0x17e>
	for(volatile uint32_t j=0;j<150;j++)
	{
		for(volatile uint32_t i=0;i<3;i++);
	}	
	LCD_SendCommand(LCD_4BITS_2LINE_5X8);
	for(volatile uint32_t j=0;j<150;j++)
    1b06:	8b 81       	ldd	r24, Y+3	; 0x03
    1b08:	9c 81       	ldd	r25, Y+4	; 0x04
    1b0a:	01 96       	adiw	r24, 0x01	; 1
    1b0c:	9c 83       	std	Y+4, r25	; 0x04
    1b0e:	8b 83       	std	Y+3, r24	; 0x03
    1b10:	8b 81       	ldd	r24, Y+3	; 0x03
    1b12:	9c 81       	ldd	r25, Y+4	; 0x04
    1b14:	86 39       	cpi	r24, 0x96	; 150
    1b16:	91 05       	cpc	r25, r1
    1b18:	50 f3       	brcs	.-44     	; 0x1aee <LCD_Init+0x178>
	LCD_SendCommand(0X30);
	LCD_SendCommand(LCD_8BITS_2LINE_5X8);
	for(volatile uint32_t i=0;i<1000;i++);
	#endif
	
	LCD_SendCommand(LCD_CLEAR_DISPALY);
    1b1a:	81 e0       	ldi	r24, 0x01	; 1
    1b1c:	0e 94 d1 0b 	call	0x17a2	; 0x17a2 <LCD_SendCommand>
	LCD_SendCommand(LCD_DISPLAYON_CURSORON_NOBLINKING);
    1b20:	8e e0       	ldi	r24, 0x0E	; 14
    1b22:	0e 94 d1 0b 	call	0x17a2	; 0x17a2 <LCD_SendCommand>
	//LCD_SendCommand(LCD_INC_AC);
}
    1b26:	68 96       	adiw	r28, 0x18	; 24
    1b28:	0f b6       	in	r0, 0x3f	; 63
    1b2a:	f8 94       	cli
    1b2c:	de bf       	out	0x3e, r29	; 62
    1b2e:	0f be       	out	0x3f, r0	; 63
    1b30:	cd bf       	out	0x3d, r28	; 61
    1b32:	df 91       	pop	r29
    1b34:	cf 91       	pop	r28
    1b36:	1f 91       	pop	r17
    1b38:	0f 91       	pop	r16
    1b3a:	08 95       	ret

00001b3c <LCD_SendData>:
	
	#endif
}

uint8_t LCD_SendData(uint8_t Data)
{
    1b3c:	ef 92       	push	r14
    1b3e:	ff 92       	push	r15
    1b40:	1f 93       	push	r17
    1b42:	cf 93       	push	r28
    1b44:	df 93       	push	r29
    1b46:	cd b7       	in	r28, 0x3d	; 61
    1b48:	de b7       	in	r29, 0x3e	; 62
    1b4a:	60 97       	sbiw	r28, 0x10	; 16
    1b4c:	0f b6       	in	r0, 0x3f	; 63
    1b4e:	f8 94       	cli
    1b50:	de bf       	out	0x3e, r29	; 62
    1b52:	0f be       	out	0x3f, r0	; 63
    1b54:	cd bf       	out	0x3d, r28	; 61
    1b56:	18 2f       	mov	r17, r24
	DIO_WritePin(	gastr_LCDConfig[LCD_RS_PIN].LCDPort,
    1b58:	0f 2e       	mov	r0, r31
    1b5a:	f6 e8       	ldi	r31, 0x86	; 134
    1b5c:	ef 2e       	mov	r14, r31
    1b5e:	f0 e0       	ldi	r31, 0x00	; 0
    1b60:	ff 2e       	mov	r15, r31
    1b62:	f0 2d       	mov	r31, r0
    1b64:	41 e0       	ldi	r20, 0x01	; 1
    1b66:	f7 01       	movw	r30, r14
    1b68:	61 81       	ldd	r22, Z+1	; 0x01
    1b6a:	80 81       	ld	r24, Z
    1b6c:	0e 94 b6 10 	call	0x216c	; 0x216c <DIO_WritePin>
	gastr_LCDConfig[LCD_RS_PIN].LCDPin,
	DR );
	
	#if LCD_MODE==LCD4BITSMODE
	DIO_WritePin(	gastr_LCDConfig[LCD_D4_PIN].LCDPort,
    1b70:	14 fb       	bst	r17, 4
    1b72:	44 27       	eor	r20, r20
    1b74:	40 f9       	bld	r20, 0
    1b76:	f7 01       	movw	r30, r14
    1b78:	62 85       	ldd	r22, Z+10	; 0x0a
    1b7a:	81 85       	ldd	r24, Z+9	; 0x09
    1b7c:	0e 94 b6 10 	call	0x216c	; 0x216c <DIO_WritePin>
	gastr_LCDConfig[LCD_D4_PIN].LCDPin,
	BIT_GET(Data,4) );
	DIO_WritePin(	gastr_LCDConfig[LCD_D5_PIN].LCDPort,
    1b80:	15 fb       	bst	r17, 5
    1b82:	44 27       	eor	r20, r20
    1b84:	40 f9       	bld	r20, 0
    1b86:	f7 01       	movw	r30, r14
    1b88:	65 85       	ldd	r22, Z+13	; 0x0d
    1b8a:	84 85       	ldd	r24, Z+12	; 0x0c
    1b8c:	0e 94 b6 10 	call	0x216c	; 0x216c <DIO_WritePin>
	gastr_LCDConfig[LCD_D5_PIN].LCDPin,
	BIT_GET(Data,5) );
	DIO_WritePin(	gastr_LCDConfig[LCD_D6_PIN].LCDPort,
    1b90:	16 fb       	bst	r17, 6
    1b92:	44 27       	eor	r20, r20
    1b94:	40 f9       	bld	r20, 0
    1b96:	f7 01       	movw	r30, r14
    1b98:	60 89       	ldd	r22, Z+16	; 0x10
    1b9a:	87 85       	ldd	r24, Z+15	; 0x0f
    1b9c:	0e 94 b6 10 	call	0x216c	; 0x216c <DIO_WritePin>
	gastr_LCDConfig[LCD_D6_PIN].LCDPin,
	BIT_GET(Data,6) );
	DIO_WritePin(	gastr_LCDConfig[LCD_D7_PIN].LCDPort,
    1ba0:	41 2f       	mov	r20, r17
    1ba2:	44 1f       	adc	r20, r20
    1ba4:	44 27       	eor	r20, r20
    1ba6:	44 1f       	adc	r20, r20
    1ba8:	f7 01       	movw	r30, r14
    1baa:	63 89       	ldd	r22, Z+19	; 0x13
    1bac:	82 89       	ldd	r24, Z+18	; 0x12
    1bae:	0e 94 b6 10 	call	0x216c	; 0x216c <DIO_WritePin>
	gastr_LCDConfig[LCD_D7_PIN].LCDPin,
	BIT_GET(Data,7) );
	
	//Enable
	DIO_WritePin(	gastr_LCDConfig[LCD_EN_PIN].LCDPort,
    1bb2:	41 e0       	ldi	r20, 0x01	; 1
    1bb4:	f7 01       	movw	r30, r14
    1bb6:	67 81       	ldd	r22, Z+7	; 0x07
    1bb8:	86 81       	ldd	r24, Z+6	; 0x06
    1bba:	0e 94 b6 10 	call	0x216c	; 0x216c <DIO_WritePin>
	gastr_LCDConfig[LCD_EN_PIN].LCDPin,
	PIN_HIGH );
	for(volatile uint32_t j=0;j<1;j++)
    1bbe:	18 8a       	std	Y+16, r1	; 0x10
    1bc0:	1f 86       	std	Y+15, r1	; 0x0f
    1bc2:	11 c0       	rjmp	.+34     	; 0x1be6 <LCD_SendData+0xaa>
	{
		for(volatile uint32_t i=0;i<3;i++);
    1bc4:	1e 86       	std	Y+14, r1	; 0x0e
    1bc6:	1d 86       	std	Y+13, r1	; 0x0d
    1bc8:	05 c0       	rjmp	.+10     	; 0x1bd4 <LCD_SendData+0x98>
    1bca:	8d 85       	ldd	r24, Y+13	; 0x0d
    1bcc:	9e 85       	ldd	r25, Y+14	; 0x0e
    1bce:	01 96       	adiw	r24, 0x01	; 1
    1bd0:	9e 87       	std	Y+14, r25	; 0x0e
    1bd2:	8d 87       	std	Y+13, r24	; 0x0d
    1bd4:	8d 85       	ldd	r24, Y+13	; 0x0d
    1bd6:	9e 85       	ldd	r25, Y+14	; 0x0e
    1bd8:	03 97       	sbiw	r24, 0x03	; 3
    1bda:	b8 f3       	brcs	.-18     	; 0x1bca <LCD_SendData+0x8e>
	
	//Enable
	DIO_WritePin(	gastr_LCDConfig[LCD_EN_PIN].LCDPort,
	gastr_LCDConfig[LCD_EN_PIN].LCDPin,
	PIN_HIGH );
	for(volatile uint32_t j=0;j<1;j++)
    1bdc:	8f 85       	ldd	r24, Y+15	; 0x0f
    1bde:	98 89       	ldd	r25, Y+16	; 0x10
    1be0:	01 96       	adiw	r24, 0x01	; 1
    1be2:	98 8b       	std	Y+16, r25	; 0x10
    1be4:	8f 87       	std	Y+15, r24	; 0x0f
    1be6:	8f 85       	ldd	r24, Y+15	; 0x0f
    1be8:	98 89       	ldd	r25, Y+16	; 0x10
    1bea:	89 2b       	or	r24, r25
    1bec:	59 f3       	breq	.-42     	; 0x1bc4 <LCD_SendData+0x88>
	{
		for(volatile uint32_t i=0;i<3;i++);
	}
	DIO_WritePin(	gastr_LCDConfig[LCD_EN_PIN].LCDPort,
    1bee:	e6 e8       	ldi	r30, 0x86	; 134
    1bf0:	f0 e0       	ldi	r31, 0x00	; 0
    1bf2:	40 e0       	ldi	r20, 0x00	; 0
    1bf4:	67 81       	ldd	r22, Z+7	; 0x07
    1bf6:	86 81       	ldd	r24, Z+6	; 0x06
    1bf8:	0e 94 b6 10 	call	0x216c	; 0x216c <DIO_WritePin>
	gastr_LCDConfig[LCD_EN_PIN].LCDPin,
	PIN_LOW );
	for(volatile uint32_t j=0;j<1;j++)
    1bfc:	1c 86       	std	Y+12, r1	; 0x0c
    1bfe:	1b 86       	std	Y+11, r1	; 0x0b
    1c00:	11 c0       	rjmp	.+34     	; 0x1c24 <LCD_SendData+0xe8>
	{
		for(volatile uint32_t i=0;i<3;i++);
    1c02:	1a 86       	std	Y+10, r1	; 0x0a
    1c04:	19 86       	std	Y+9, r1	; 0x09
    1c06:	05 c0       	rjmp	.+10     	; 0x1c12 <LCD_SendData+0xd6>
    1c08:	89 85       	ldd	r24, Y+9	; 0x09
    1c0a:	9a 85       	ldd	r25, Y+10	; 0x0a
    1c0c:	01 96       	adiw	r24, 0x01	; 1
    1c0e:	9a 87       	std	Y+10, r25	; 0x0a
    1c10:	89 87       	std	Y+9, r24	; 0x09
    1c12:	89 85       	ldd	r24, Y+9	; 0x09
    1c14:	9a 85       	ldd	r25, Y+10	; 0x0a
    1c16:	03 97       	sbiw	r24, 0x03	; 3
    1c18:	b8 f3       	brcs	.-18     	; 0x1c08 <LCD_SendData+0xcc>
		for(volatile uint32_t i=0;i<3;i++);
	}
	DIO_WritePin(	gastr_LCDConfig[LCD_EN_PIN].LCDPort,
	gastr_LCDConfig[LCD_EN_PIN].LCDPin,
	PIN_LOW );
	for(volatile uint32_t j=0;j<1;j++)
    1c1a:	8b 85       	ldd	r24, Y+11	; 0x0b
    1c1c:	9c 85       	ldd	r25, Y+12	; 0x0c
    1c1e:	01 96       	adiw	r24, 0x01	; 1
    1c20:	9c 87       	std	Y+12, r25	; 0x0c
    1c22:	8b 87       	std	Y+11, r24	; 0x0b
    1c24:	8b 85       	ldd	r24, Y+11	; 0x0b
    1c26:	9c 85       	ldd	r25, Y+12	; 0x0c
    1c28:	89 2b       	or	r24, r25
    1c2a:	59 f3       	breq	.-42     	; 0x1c02 <LCD_SendData+0xc6>
	{
		for(volatile uint32_t i=0;i<3;i++);
	}
	
	
	DIO_WritePin(	gastr_LCDConfig[LCD_D4_PIN].LCDPort,
    1c2c:	41 2f       	mov	r20, r17
    1c2e:	41 70       	andi	r20, 0x01	; 1
    1c30:	0f 2e       	mov	r0, r31
    1c32:	f6 e8       	ldi	r31, 0x86	; 134
    1c34:	ef 2e       	mov	r14, r31
    1c36:	f0 e0       	ldi	r31, 0x00	; 0
    1c38:	ff 2e       	mov	r15, r31
    1c3a:	f0 2d       	mov	r31, r0
    1c3c:	f7 01       	movw	r30, r14
    1c3e:	62 85       	ldd	r22, Z+10	; 0x0a
    1c40:	81 85       	ldd	r24, Z+9	; 0x09
    1c42:	0e 94 b6 10 	call	0x216c	; 0x216c <DIO_WritePin>
	gastr_LCDConfig[LCD_D4_PIN].LCDPin,
	BIT_GET(Data,0) );
	DIO_WritePin(	gastr_LCDConfig[LCD_D5_PIN].LCDPort,
    1c46:	11 fb       	bst	r17, 1
    1c48:	44 27       	eor	r20, r20
    1c4a:	40 f9       	bld	r20, 0
    1c4c:	f7 01       	movw	r30, r14
    1c4e:	65 85       	ldd	r22, Z+13	; 0x0d
    1c50:	84 85       	ldd	r24, Z+12	; 0x0c
    1c52:	0e 94 b6 10 	call	0x216c	; 0x216c <DIO_WritePin>
	gastr_LCDConfig[LCD_D5_PIN].LCDPin,
	BIT_GET(Data,1) );
	DIO_WritePin(	gastr_LCDConfig[LCD_D6_PIN].LCDPort,
    1c56:	12 fb       	bst	r17, 2
    1c58:	44 27       	eor	r20, r20
    1c5a:	40 f9       	bld	r20, 0
    1c5c:	f7 01       	movw	r30, r14
    1c5e:	60 89       	ldd	r22, Z+16	; 0x10
    1c60:	87 85       	ldd	r24, Z+15	; 0x0f
    1c62:	0e 94 b6 10 	call	0x216c	; 0x216c <DIO_WritePin>
	gastr_LCDConfig[LCD_D6_PIN].LCDPin,
	BIT_GET(Data,2) );
	DIO_WritePin(	gastr_LCDConfig[LCD_D7_PIN].LCDPort,
    1c66:	13 fb       	bst	r17, 3
    1c68:	44 27       	eor	r20, r20
    1c6a:	40 f9       	bld	r20, 0
    1c6c:	f7 01       	movw	r30, r14
    1c6e:	63 89       	ldd	r22, Z+19	; 0x13
    1c70:	82 89       	ldd	r24, Z+18	; 0x12
    1c72:	0e 94 b6 10 	call	0x216c	; 0x216c <DIO_WritePin>
	gastr_LCDConfig[LCD_D7_PIN].LCDPin,
	BIT_GET(Data,3) );

	//Enable
	DIO_WritePin(	gastr_LCDConfig[LCD_EN_PIN].LCDPort,
    1c76:	41 e0       	ldi	r20, 0x01	; 1
    1c78:	f7 01       	movw	r30, r14
    1c7a:	67 81       	ldd	r22, Z+7	; 0x07
    1c7c:	86 81       	ldd	r24, Z+6	; 0x06
    1c7e:	0e 94 b6 10 	call	0x216c	; 0x216c <DIO_WritePin>
	gastr_LCDConfig[LCD_EN_PIN].LCDPin,
	PIN_HIGH );
	for(volatile uint32_t j=0;j<1;j++)
    1c82:	18 86       	std	Y+8, r1	; 0x08
    1c84:	1f 82       	std	Y+7, r1	; 0x07
    1c86:	11 c0       	rjmp	.+34     	; 0x1caa <LCD_SendData+0x16e>
	{
		for(volatile uint32_t i=0;i<3;i++);
    1c88:	1e 82       	std	Y+6, r1	; 0x06
    1c8a:	1d 82       	std	Y+5, r1	; 0x05
    1c8c:	05 c0       	rjmp	.+10     	; 0x1c98 <LCD_SendData+0x15c>
    1c8e:	8d 81       	ldd	r24, Y+5	; 0x05
    1c90:	9e 81       	ldd	r25, Y+6	; 0x06
    1c92:	01 96       	adiw	r24, 0x01	; 1
    1c94:	9e 83       	std	Y+6, r25	; 0x06
    1c96:	8d 83       	std	Y+5, r24	; 0x05
    1c98:	8d 81       	ldd	r24, Y+5	; 0x05
    1c9a:	9e 81       	ldd	r25, Y+6	; 0x06
    1c9c:	03 97       	sbiw	r24, 0x03	; 3
    1c9e:	b8 f3       	brcs	.-18     	; 0x1c8e <LCD_SendData+0x152>

	//Enable
	DIO_WritePin(	gastr_LCDConfig[LCD_EN_PIN].LCDPort,
	gastr_LCDConfig[LCD_EN_PIN].LCDPin,
	PIN_HIGH );
	for(volatile uint32_t j=0;j<1;j++)
    1ca0:	8f 81       	ldd	r24, Y+7	; 0x07
    1ca2:	98 85       	ldd	r25, Y+8	; 0x08
    1ca4:	01 96       	adiw	r24, 0x01	; 1
    1ca6:	98 87       	std	Y+8, r25	; 0x08
    1ca8:	8f 83       	std	Y+7, r24	; 0x07
    1caa:	8f 81       	ldd	r24, Y+7	; 0x07
    1cac:	98 85       	ldd	r25, Y+8	; 0x08
    1cae:	89 2b       	or	r24, r25
    1cb0:	59 f3       	breq	.-42     	; 0x1c88 <LCD_SendData+0x14c>
	{
		for(volatile uint32_t i=0;i<3;i++);
	}
	DIO_WritePin(	gastr_LCDConfig[LCD_EN_PIN].LCDPort,
    1cb2:	e6 e8       	ldi	r30, 0x86	; 134
    1cb4:	f0 e0       	ldi	r31, 0x00	; 0
    1cb6:	40 e0       	ldi	r20, 0x00	; 0
    1cb8:	67 81       	ldd	r22, Z+7	; 0x07
    1cba:	86 81       	ldd	r24, Z+6	; 0x06
    1cbc:	0e 94 b6 10 	call	0x216c	; 0x216c <DIO_WritePin>
	gastr_LCDConfig[LCD_EN_PIN].LCDPin,
	PIN_LOW );
	for(volatile uint32_t j=0;j<1;j++)
    1cc0:	1c 82       	std	Y+4, r1	; 0x04
    1cc2:	1b 82       	std	Y+3, r1	; 0x03
    1cc4:	11 c0       	rjmp	.+34     	; 0x1ce8 <LCD_SendData+0x1ac>
	{
		for(volatile uint32_t i=0;i<3;i++);
    1cc6:	1a 82       	std	Y+2, r1	; 0x02
    1cc8:	19 82       	std	Y+1, r1	; 0x01
    1cca:	05 c0       	rjmp	.+10     	; 0x1cd6 <LCD_SendData+0x19a>
    1ccc:	89 81       	ldd	r24, Y+1	; 0x01
    1cce:	9a 81       	ldd	r25, Y+2	; 0x02
    1cd0:	01 96       	adiw	r24, 0x01	; 1
    1cd2:	9a 83       	std	Y+2, r25	; 0x02
    1cd4:	89 83       	std	Y+1, r24	; 0x01
    1cd6:	89 81       	ldd	r24, Y+1	; 0x01
    1cd8:	9a 81       	ldd	r25, Y+2	; 0x02
    1cda:	03 97       	sbiw	r24, 0x03	; 3
    1cdc:	b8 f3       	brcs	.-18     	; 0x1ccc <LCD_SendData+0x190>
		for(volatile uint32_t i=0;i<3;i++);
	}
	DIO_WritePin(	gastr_LCDConfig[LCD_EN_PIN].LCDPort,
	gastr_LCDConfig[LCD_EN_PIN].LCDPin,
	PIN_LOW );
	for(volatile uint32_t j=0;j<1;j++)
    1cde:	8b 81       	ldd	r24, Y+3	; 0x03
    1ce0:	9c 81       	ldd	r25, Y+4	; 0x04
    1ce2:	01 96       	adiw	r24, 0x01	; 1
    1ce4:	9c 83       	std	Y+4, r25	; 0x04
    1ce6:	8b 83       	std	Y+3, r24	; 0x03
    1ce8:	8b 81       	ldd	r24, Y+3	; 0x03
    1cea:	9c 81       	ldd	r25, Y+4	; 0x04
    1cec:	89 2b       	or	r24, r25
    1cee:	59 f3       	breq	.-42     	; 0x1cc6 <LCD_SendData+0x18a>
	gastr_LCDConfig[LCD_EN_PIN].LCDPin,
	PIN_LOW );
	for(uint32_t i=0;i<1000;i++);
	
	#endif
}
    1cf0:	60 96       	adiw	r28, 0x10	; 16
    1cf2:	0f b6       	in	r0, 0x3f	; 63
    1cf4:	f8 94       	cli
    1cf6:	de bf       	out	0x3e, r29	; 62
    1cf8:	0f be       	out	0x3f, r0	; 63
    1cfa:	cd bf       	out	0x3d, r28	; 61
    1cfc:	df 91       	pop	r29
    1cfe:	cf 91       	pop	r28
    1d00:	1f 91       	pop	r17
    1d02:	ff 90       	pop	r15
    1d04:	ef 90       	pop	r14
    1d06:	08 95       	ret

00001d08 <LCD_SendString>:

uint8_t LCD_SendString(ptr_int8_t String)
{
    1d08:	cf 93       	push	r28
    1d0a:	df 93       	push	r29
    1d0c:	ec 01       	movw	r28, r24
	while(*String!='\0')
    1d0e:	03 c0       	rjmp	.+6      	; 0x1d16 <LCD_SendString+0xe>
	{
		LCD_SendData(*String);
    1d10:	0e 94 9e 0d 	call	0x1b3c	; 0x1b3c <LCD_SendData>
		String++;
    1d14:	21 96       	adiw	r28, 0x01	; 1
	#endif
}

uint8_t LCD_SendString(ptr_int8_t String)
{
	while(*String!='\0')
    1d16:	88 81       	ld	r24, Y
    1d18:	81 11       	cpse	r24, r1
    1d1a:	fa cf       	rjmp	.-12     	; 0x1d10 <LCD_SendString+0x8>
	{
		LCD_SendData(*String);
		String++;
	}
}
    1d1c:	df 91       	pop	r29
    1d1e:	cf 91       	pop	r28
    1d20:	08 95       	ret

00001d22 <LCD_SendNumber>:

uint8_t LCD_SendNumber(uint32_t Number)
{
    1d22:	1f 93       	push	r17
    1d24:	cf 93       	push	r28
    1d26:	df 93       	push	r29
    1d28:	cd b7       	in	r28, 0x3d	; 61
    1d2a:	de b7       	in	r29, 0x3e	; 62
    1d2c:	2a 97       	sbiw	r28, 0x0a	; 10
    1d2e:	0f b6       	in	r0, 0x3f	; 63
    1d30:	f8 94       	cli
    1d32:	de bf       	out	0x3e, r29	; 62
    1d34:	0f be       	out	0x3f, r0	; 63
    1d36:	cd bf       	out	0x3d, r28	; 61
    1d38:	ac 01       	movw	r20, r24
	uint8_t Numbers[10];
	sint8_t Count;
	if(Number==0)
    1d3a:	89 2b       	or	r24, r25
    1d3c:	a1 f5       	brne	.+104    	; 0x1da6 <LCD_SendNumber+0x84>
	{
		LCD_SendData(48);
    1d3e:	80 e3       	ldi	r24, 0x30	; 48
    1d40:	0e 94 9e 0d 	call	0x1b3c	; 0x1b3c <LCD_SendData>
    1d44:	44 c0       	rjmp	.+136    	; 0x1dce <LCD_SendNumber+0xac>
		return;
	}
	for(Count=0;Number>0;Count++)
	{
		Numbers[Count]=(Number%10)+48;
    1d46:	9a 01       	movw	r18, r20
    1d48:	ad ec       	ldi	r26, 0xCD	; 205
    1d4a:	bc ec       	ldi	r27, 0xCC	; 204
    1d4c:	0e 94 89 17 	call	0x2f12	; 0x2f12 <__umulhisi3>
    1d50:	96 95       	lsr	r25
    1d52:	87 95       	ror	r24
    1d54:	96 95       	lsr	r25
    1d56:	87 95       	ror	r24
    1d58:	96 95       	lsr	r25
    1d5a:	87 95       	ror	r24
    1d5c:	9c 01       	movw	r18, r24
    1d5e:	22 0f       	add	r18, r18
    1d60:	33 1f       	adc	r19, r19
    1d62:	88 0f       	add	r24, r24
    1d64:	99 1f       	adc	r25, r25
    1d66:	88 0f       	add	r24, r24
    1d68:	99 1f       	adc	r25, r25
    1d6a:	88 0f       	add	r24, r24
    1d6c:	99 1f       	adc	r25, r25
    1d6e:	82 0f       	add	r24, r18
    1d70:	93 1f       	adc	r25, r19
    1d72:	9a 01       	movw	r18, r20
    1d74:	28 1b       	sub	r18, r24
    1d76:	39 0b       	sbc	r19, r25
    1d78:	c9 01       	movw	r24, r18
    1d7a:	e1 e0       	ldi	r30, 0x01	; 1
    1d7c:	f0 e0       	ldi	r31, 0x00	; 0
    1d7e:	ec 0f       	add	r30, r28
    1d80:	fd 1f       	adc	r31, r29
    1d82:	e1 0f       	add	r30, r17
    1d84:	f1 1d       	adc	r31, r1
    1d86:	17 fd       	sbrc	r17, 7
    1d88:	fa 95       	dec	r31
    1d8a:	80 5d       	subi	r24, 0xD0	; 208
    1d8c:	80 83       	st	Z, r24
		Number=Number/10;
    1d8e:	9a 01       	movw	r18, r20
    1d90:	0e 94 89 17 	call	0x2f12	; 0x2f12 <__umulhisi3>
    1d94:	ac 01       	movw	r20, r24
    1d96:	56 95       	lsr	r21
    1d98:	47 95       	ror	r20
    1d9a:	56 95       	lsr	r21
    1d9c:	47 95       	ror	r20
    1d9e:	56 95       	lsr	r21
    1da0:	47 95       	ror	r20
	if(Number==0)
	{
		LCD_SendData(48);
		return;
	}
	for(Count=0;Number>0;Count++)
    1da2:	1f 5f       	subi	r17, 0xFF	; 255
    1da4:	01 c0       	rjmp	.+2      	; 0x1da8 <LCD_SendNumber+0x86>
    1da6:	10 e0       	ldi	r17, 0x00	; 0
    1da8:	41 15       	cp	r20, r1
    1daa:	51 05       	cpc	r21, r1
    1dac:	61 f6       	brne	.-104    	; 0x1d46 <LCD_SendNumber+0x24>
	{
		Numbers[Count]=(Number%10)+48;
		Number=Number/10;
	}
	for(Count--;Count>=0;Count--)
    1dae:	11 50       	subi	r17, 0x01	; 1
    1db0:	0c c0       	rjmp	.+24     	; 0x1dca <LCD_SendNumber+0xa8>
	{
		LCD_SendData(Numbers[Count]);
    1db2:	e1 e0       	ldi	r30, 0x01	; 1
    1db4:	f0 e0       	ldi	r31, 0x00	; 0
    1db6:	ec 0f       	add	r30, r28
    1db8:	fd 1f       	adc	r31, r29
    1dba:	e1 0f       	add	r30, r17
    1dbc:	f1 1d       	adc	r31, r1
    1dbe:	17 fd       	sbrc	r17, 7
    1dc0:	fa 95       	dec	r31
    1dc2:	80 81       	ld	r24, Z
    1dc4:	0e 94 9e 0d 	call	0x1b3c	; 0x1b3c <LCD_SendData>
	for(Count=0;Number>0;Count++)
	{
		Numbers[Count]=(Number%10)+48;
		Number=Number/10;
	}
	for(Count--;Count>=0;Count--)
    1dc8:	11 50       	subi	r17, 0x01	; 1
    1dca:	11 23       	and	r17, r17
    1dcc:	94 f7       	brge	.-28     	; 0x1db2 <LCD_SendNumber+0x90>
	{
		LCD_SendData(Numbers[Count]);
	}
    1dce:	2a 96       	adiw	r28, 0x0a	; 10
    1dd0:	0f b6       	in	r0, 0x3f	; 63
    1dd2:	f8 94       	cli
    1dd4:	de bf       	out	0x3e, r29	; 62
    1dd6:	0f be       	out	0x3f, r0	; 63
    1dd8:	cd bf       	out	0x3d, r28	; 61
    1dda:	df 91       	pop	r29
    1ddc:	cf 91       	pop	r28
    1dde:	1f 91       	pop	r17
    1de0:	08 95       	ret

00001de2 <MOTOR_INIT>:
/******************************************************************************
*                         APIS IMPLEMENTATION											*
*******************************************************************************/
MOTOR_STATUS_t MOTOR_INIT(void)
{
	DIO_SetPinDirection(MOTOR_PORT, MOTOR_PIN, PIN_OUTPUT);
    1de2:	41 e0       	ldi	r20, 0x01	; 1
    1de4:	64 e0       	ldi	r22, 0x04	; 4
    1de6:	82 e0       	ldi	r24, 0x02	; 2
    1de8:	0e 94 5d 10 	call	0x20ba	; 0x20ba <DIO_SetPinDirection>
	return MOTOR_SUCCESS;
}
    1dec:	80 e0       	ldi	r24, 0x00	; 0
    1dee:	08 95       	ret

00001df0 <MOTOR_START>:
MOTOR_STATUS_t MOTOR_START(void)
{
	DIO_WritePin(MOTOR_PORT, MOTOR_PIN, PIN_HIGH);
    1df0:	41 e0       	ldi	r20, 0x01	; 1
    1df2:	64 e0       	ldi	r22, 0x04	; 4
    1df4:	82 e0       	ldi	r24, 0x02	; 2
    1df6:	0e 94 b6 10 	call	0x216c	; 0x216c <DIO_WritePin>
	return MOTOR_SUCCESS;
}
    1dfa:	80 e0       	ldi	r24, 0x00	; 0
    1dfc:	08 95       	ret

00001dfe <MOTOR_STOP>:
MOTOR_STATUS_t MOTOR_STOP(void)
{
	DIO_WritePin(MOTOR_PORT, MOTOR_PIN, PIN_LOW);
    1dfe:	40 e0       	ldi	r20, 0x00	; 0
    1e00:	64 e0       	ldi	r22, 0x04	; 4
    1e02:	82 e0       	ldi	r24, 0x02	; 2
    1e04:	0e 94 b6 10 	call	0x216c	; 0x216c <DIO_WritePin>
	return MOTOR_SUCCESS;
}
    1e08:	80 e0       	ldi	r24, 0x00	; 0
    1e0a:	08 95       	ret

00001e0c <TEMP_Init>:
#include "temp.h"

uint8_t TEMP_Init(uint8_t Temp_ch) {
	switch (Temp_ch) {
    1e0c:	90 e0       	ldi	r25, 0x00	; 0
    1e0e:	88 30       	cpi	r24, 0x08	; 8
    1e10:	91 05       	cpc	r25, r1
    1e12:	48 f5       	brcc	.+82     	; 0x1e66 <TEMP_Init+0x5a>
    1e14:	fc 01       	movw	r30, r24
    1e16:	e6 5d       	subi	r30, 0xD6	; 214
    1e18:	ff 4f       	sbci	r31, 0xFF	; 255
    1e1a:	0c 94 83 17 	jmp	0x2f06	; 0x2f06 <__tablejump2__>
	case TEMP_CH_0 :
		ADC_Init(ADC0_CH0);
    1e1e:	80 e0       	ldi	r24, 0x00	; 0
    1e20:	0e 94 04 10 	call	0x2008	; 0x2008 <ADC_Init>
		break;
    1e24:	20 c0       	rjmp	.+64     	; 0x1e66 <TEMP_Init+0x5a>
	case TEMP_CH_1 :
		ADC_Init(ADC0_CH1);
    1e26:	81 e0       	ldi	r24, 0x01	; 1
    1e28:	0e 94 04 10 	call	0x2008	; 0x2008 <ADC_Init>
		break;
    1e2c:	1c c0       	rjmp	.+56     	; 0x1e66 <TEMP_Init+0x5a>
	case TEMP_CH_2 :
		ADC_Init(ADC0_CH2);
    1e2e:	82 e0       	ldi	r24, 0x02	; 2
    1e30:	0e 94 04 10 	call	0x2008	; 0x2008 <ADC_Init>
		break;
    1e34:	18 c0       	rjmp	.+48     	; 0x1e66 <TEMP_Init+0x5a>
	case TEMP_CH_3 :
		ADC_Init(ADC0_CH3);
    1e36:	83 e0       	ldi	r24, 0x03	; 3
    1e38:	0e 94 04 10 	call	0x2008	; 0x2008 <ADC_Init>
		break;
    1e3c:	14 c0       	rjmp	.+40     	; 0x1e66 <TEMP_Init+0x5a>
	case TEMP_CH_4 :
		ADC_Init(ADC0_CH4);
    1e3e:	84 e0       	ldi	r24, 0x04	; 4
    1e40:	0e 94 04 10 	call	0x2008	; 0x2008 <ADC_Init>
		break;
    1e44:	10 c0       	rjmp	.+32     	; 0x1e66 <TEMP_Init+0x5a>
	case TEMP_CH_5 :
		ADC_Init(ADC0_CH5);
    1e46:	85 e0       	ldi	r24, 0x05	; 5
    1e48:	0e 94 04 10 	call	0x2008	; 0x2008 <ADC_Init>
		break;
    1e4c:	0c c0       	rjmp	.+24     	; 0x1e66 <TEMP_Init+0x5a>
	case TEMP_CH_6 :
		ADC_Init(ADC0_CH6);
    1e4e:	86 e0       	ldi	r24, 0x06	; 6
    1e50:	0e 94 04 10 	call	0x2008	; 0x2008 <ADC_Init>
		break;
    1e54:	08 c0       	rjmp	.+16     	; 0x1e66 <TEMP_Init+0x5a>
	case TEMP_CH_7 :
		DIO_SetPinDirection(PORTA,PIN7,PIN_INPUT);
    1e56:	40 e0       	ldi	r20, 0x00	; 0
    1e58:	67 e0       	ldi	r22, 0x07	; 7
    1e5a:	8b b3       	in	r24, 0x1b	; 27
    1e5c:	0e 94 5d 10 	call	0x20ba	; 0x20ba <DIO_SetPinDirection>
		ADC_Init(ADC0_CH7);
    1e60:	87 e0       	ldi	r24, 0x07	; 7
    1e62:	0e 94 04 10 	call	0x2008	; 0x2008 <ADC_Init>
		break;
	default:
		break;
	}
	return 0;
}
    1e66:	80 e0       	ldi	r24, 0x00	; 0
    1e68:	08 95       	ret

00001e6a <TEMP_GetTemp>:
uint8_t TEMP_GetTemp(uint8_t Temp_ch, uint8_t* temp) {
    1e6a:	0f 93       	push	r16
    1e6c:	1f 93       	push	r17
    1e6e:	cf 93       	push	r28
    1e70:	df 93       	push	r29
    1e72:	00 d0       	rcall	.+0      	; 0x1e74 <TEMP_GetTemp+0xa>
    1e74:	cd b7       	in	r28, 0x3d	; 61
    1e76:	de b7       	in	r29, 0x3e	; 62
	uint16_t ADC_READ=0;
    1e78:	1a 82       	std	Y+2, r1	; 0x02
    1e7a:	19 82       	std	Y+1, r1	; 0x01
	switch (Temp_ch) {
    1e7c:	90 e0       	ldi	r25, 0x00	; 0
    1e7e:	88 30       	cpi	r24, 0x08	; 8
    1e80:	91 05       	cpc	r25, r1
    1e82:	08 f0       	brcs	.+2      	; 0x1e86 <TEMP_GetTemp+0x1c>
    1e84:	69 c0       	rjmp	.+210    	; 0x1f58 <TEMP_GetTemp+0xee>
    1e86:	8b 01       	movw	r16, r22
    1e88:	fc 01       	movw	r30, r24
    1e8a:	ee 5c       	subi	r30, 0xCE	; 206
    1e8c:	ff 4f       	sbci	r31, 0xFF	; 255
    1e8e:	0c 94 83 17 	jmp	0x2f06	; 0x2f06 <__tablejump2__>
		case TEMP_CH_0 :
			ADC_Read(ADC0_CH0,&ADC_READ);
    1e92:	be 01       	movw	r22, r28
    1e94:	6f 5f       	subi	r22, 0xFF	; 255
    1e96:	7f 4f       	sbci	r23, 0xFF	; 255
    1e98:	80 e0       	ldi	r24, 0x00	; 0
    1e9a:	0e 94 1b 10 	call	0x2036	; 0x2036 <ADC_Read>
			ADC_READ=((((uint32_t)ADC_READ)*(150))/ADC1_RESLUATION);
    1e9e:	89 81       	ldd	r24, Y+1	; 0x01
    1ea0:	9a 81       	ldd	r25, Y+2	; 0x02
    1ea2:	26 e9       	ldi	r18, 0x96	; 150
    1ea4:	28 9f       	mul	r18, r24
    1ea6:	b0 01       	movw	r22, r0
    1ea8:	29 9f       	mul	r18, r25
    1eaa:	70 0d       	add	r23, r0
    1eac:	11 24       	eor	r1, r1
    1eae:	80 e0       	ldi	r24, 0x00	; 0
    1eb0:	90 e0       	ldi	r25, 0x00	; 0
    1eb2:	0e 94 da 14 	call	0x29b4	; 0x29b4 <__floatunsisf>
    1eb6:	20 e0       	ldi	r18, 0x00	; 0
    1eb8:	30 e8       	ldi	r19, 0x80	; 128
    1eba:	49 e9       	ldi	r20, 0x99	; 153
    1ebc:	53 e4       	ldi	r21, 0x43	; 67
    1ebe:	0e 94 39 14 	call	0x2872	; 0x2872 <__divsf3>
    1ec2:	0e 94 ab 14 	call	0x2956	; 0x2956 <__fixunssfsi>
			*(temp)=(uint8_t)ADC_READ;
    1ec6:	f8 01       	movw	r30, r16
    1ec8:	60 83       	st	Z, r22
			break;
    1eca:	46 c0       	rjmp	.+140    	; 0x1f58 <TEMP_GetTemp+0xee>
		case TEMP_CH_1 :
			ADC_Read(ADC0_CH1,&ADC_READ);
    1ecc:	be 01       	movw	r22, r28
    1ece:	6f 5f       	subi	r22, 0xFF	; 255
    1ed0:	7f 4f       	sbci	r23, 0xFF	; 255
    1ed2:	81 e0       	ldi	r24, 0x01	; 1
    1ed4:	0e 94 1b 10 	call	0x2036	; 0x2036 <ADC_Read>
			break;
    1ed8:	3f c0       	rjmp	.+126    	; 0x1f58 <TEMP_GetTemp+0xee>
		case TEMP_CH_2 :
			ADC_Read(ADC0_CH2,&ADC_READ);
    1eda:	be 01       	movw	r22, r28
    1edc:	6f 5f       	subi	r22, 0xFF	; 255
    1ede:	7f 4f       	sbci	r23, 0xFF	; 255
    1ee0:	82 e0       	ldi	r24, 0x02	; 2
    1ee2:	0e 94 1b 10 	call	0x2036	; 0x2036 <ADC_Read>
			break;
    1ee6:	38 c0       	rjmp	.+112    	; 0x1f58 <TEMP_GetTemp+0xee>
		case TEMP_CH_3 :
			ADC_Read(ADC0_CH3,&ADC_READ);
    1ee8:	be 01       	movw	r22, r28
    1eea:	6f 5f       	subi	r22, 0xFF	; 255
    1eec:	7f 4f       	sbci	r23, 0xFF	; 255
    1eee:	83 e0       	ldi	r24, 0x03	; 3
    1ef0:	0e 94 1b 10 	call	0x2036	; 0x2036 <ADC_Read>
			break;
    1ef4:	31 c0       	rjmp	.+98     	; 0x1f58 <TEMP_GetTemp+0xee>
		case TEMP_CH_4 :
			ADC_Read(ADC0_CH4,&ADC_READ);
    1ef6:	be 01       	movw	r22, r28
    1ef8:	6f 5f       	subi	r22, 0xFF	; 255
    1efa:	7f 4f       	sbci	r23, 0xFF	; 255
    1efc:	84 e0       	ldi	r24, 0x04	; 4
    1efe:	0e 94 1b 10 	call	0x2036	; 0x2036 <ADC_Read>
			break;
    1f02:	2a c0       	rjmp	.+84     	; 0x1f58 <TEMP_GetTemp+0xee>
		case TEMP_CH_5 :
			ADC_Read(ADC0_CH5,&ADC_READ);
    1f04:	be 01       	movw	r22, r28
    1f06:	6f 5f       	subi	r22, 0xFF	; 255
    1f08:	7f 4f       	sbci	r23, 0xFF	; 255
    1f0a:	85 e0       	ldi	r24, 0x05	; 5
    1f0c:	0e 94 1b 10 	call	0x2036	; 0x2036 <ADC_Read>
			break;
    1f10:	23 c0       	rjmp	.+70     	; 0x1f58 <TEMP_GetTemp+0xee>
		case TEMP_CH_6 :
			ADC_Read(ADC0_CH6,&ADC_READ);
    1f12:	be 01       	movw	r22, r28
    1f14:	6f 5f       	subi	r22, 0xFF	; 255
    1f16:	7f 4f       	sbci	r23, 0xFF	; 255
    1f18:	86 e0       	ldi	r24, 0x06	; 6
    1f1a:	0e 94 1b 10 	call	0x2036	; 0x2036 <ADC_Read>
			break;
    1f1e:	1c c0       	rjmp	.+56     	; 0x1f58 <TEMP_GetTemp+0xee>
		case TEMP_CH_7 :
			ADC_Read(ADC0_CH7,&ADC_READ);
    1f20:	be 01       	movw	r22, r28
    1f22:	6f 5f       	subi	r22, 0xFF	; 255
    1f24:	7f 4f       	sbci	r23, 0xFF	; 255
    1f26:	87 e0       	ldi	r24, 0x07	; 7
    1f28:	0e 94 1b 10 	call	0x2036	; 0x2036 <ADC_Read>
			ADC_READ=((((uint32_t)ADC_READ)*(150))/ADC1_RESLUATION);
    1f2c:	89 81       	ldd	r24, Y+1	; 0x01
    1f2e:	9a 81       	ldd	r25, Y+2	; 0x02
    1f30:	26 e9       	ldi	r18, 0x96	; 150
    1f32:	28 9f       	mul	r18, r24
    1f34:	b0 01       	movw	r22, r0
    1f36:	29 9f       	mul	r18, r25
    1f38:	70 0d       	add	r23, r0
    1f3a:	11 24       	eor	r1, r1
    1f3c:	80 e0       	ldi	r24, 0x00	; 0
    1f3e:	90 e0       	ldi	r25, 0x00	; 0
    1f40:	0e 94 da 14 	call	0x29b4	; 0x29b4 <__floatunsisf>
    1f44:	20 e0       	ldi	r18, 0x00	; 0
    1f46:	30 e8       	ldi	r19, 0x80	; 128
    1f48:	49 e9       	ldi	r20, 0x99	; 153
    1f4a:	53 e4       	ldi	r21, 0x43	; 67
    1f4c:	0e 94 39 14 	call	0x2872	; 0x2872 <__divsf3>
    1f50:	0e 94 ab 14 	call	0x2956	; 0x2956 <__fixunssfsi>
			*(temp)=(uint8_t)ADC_READ;
    1f54:	f8 01       	movw	r30, r16
    1f56:	60 83       	st	Z, r22
		default:
			break;
		}

	return 0;
}
    1f58:	80 e0       	ldi	r24, 0x00	; 0
    1f5a:	0f 90       	pop	r0
    1f5c:	0f 90       	pop	r0
    1f5e:	df 91       	pop	r29
    1f60:	cf 91       	pop	r28
    1f62:	1f 91       	pop	r17
    1f64:	0f 91       	pop	r16
    1f66:	08 95       	ret

00001f68 <dummy_delay>:
-----------------------------------*/
/**
* @brief: This function is a dummy delay.
*/
void dummy_delay(void)
{
    1f68:	cf 93       	push	r28
    1f6a:	df 93       	push	r29
    1f6c:	00 d0       	rcall	.+0      	; 0x1f6e <dummy_delay+0x6>
    1f6e:	00 d0       	rcall	.+0      	; 0x1f70 <dummy_delay+0x8>
    1f70:	cd b7       	in	r28, 0x3d	; 61
    1f72:	de b7       	in	r29, 0x3e	; 62
   for(volatile uint16_t i=0; i<100; i++)
    1f74:	1a 82       	std	Y+2, r1	; 0x02
    1f76:	19 82       	std	Y+1, r1	; 0x01
    1f78:	15 c0       	rjmp	.+42     	; 0x1fa4 <dummy_delay+0x3c>
   {
      for(volatile uint8_t j=0; j<32; j++)
    1f7a:	1c 82       	std	Y+4, r1	; 0x04
    1f7c:	0b c0       	rjmp	.+22     	; 0x1f94 <dummy_delay+0x2c>
      {
         for(volatile uint8_t k=0; k<32; k++)
    1f7e:	1b 82       	std	Y+3, r1	; 0x03
    1f80:	03 c0       	rjmp	.+6      	; 0x1f88 <dummy_delay+0x20>
    1f82:	8b 81       	ldd	r24, Y+3	; 0x03
    1f84:	8f 5f       	subi	r24, 0xFF	; 255
    1f86:	8b 83       	std	Y+3, r24	; 0x03
    1f88:	8b 81       	ldd	r24, Y+3	; 0x03
    1f8a:	80 32       	cpi	r24, 0x20	; 32
    1f8c:	d0 f3       	brcs	.-12     	; 0x1f82 <dummy_delay+0x1a>
*/
void dummy_delay(void)
{
   for(volatile uint16_t i=0; i<100; i++)
   {
      for(volatile uint8_t j=0; j<32; j++)
    1f8e:	8c 81       	ldd	r24, Y+4	; 0x04
    1f90:	8f 5f       	subi	r24, 0xFF	; 255
    1f92:	8c 83       	std	Y+4, r24	; 0x04
    1f94:	8c 81       	ldd	r24, Y+4	; 0x04
    1f96:	80 32       	cpi	r24, 0x20	; 32
    1f98:	90 f3       	brcs	.-28     	; 0x1f7e <dummy_delay+0x16>
/**
* @brief: This function is a dummy delay.
*/
void dummy_delay(void)
{
   for(volatile uint16_t i=0; i<100; i++)
    1f9a:	89 81       	ldd	r24, Y+1	; 0x01
    1f9c:	9a 81       	ldd	r25, Y+2	; 0x02
    1f9e:	01 96       	adiw	r24, 0x01	; 1
    1fa0:	9a 83       	std	Y+2, r25	; 0x02
    1fa2:	89 83       	std	Y+1, r24	; 0x01
    1fa4:	89 81       	ldd	r24, Y+1	; 0x01
    1fa6:	9a 81       	ldd	r25, Y+2	; 0x02
    1fa8:	84 36       	cpi	r24, 0x64	; 100
    1faa:	91 05       	cpc	r25, r1
    1fac:	30 f3       	brcs	.-52     	; 0x1f7a <dummy_delay+0x12>
         {
            
         }
      }
   }
}
    1fae:	0f 90       	pop	r0
    1fb0:	0f 90       	pop	r0
    1fb2:	0f 90       	pop	r0
    1fb4:	0f 90       	pop	r0
    1fb6:	df 91       	pop	r29
    1fb8:	cf 91       	pop	r28
    1fba:	08 95       	ret

00001fbc <StringCompare>:
* @param [in]  str2   -  pointer to the second string.
*
* @return function error state.
*/
uint8_t StringCompare(uint8_t * str1, uint8_t * str2)
{
    1fbc:	dc 01       	movw	r26, r24
   uint8_t u8_counter = 0;
    1fbe:	40 e0       	ldi	r20, 0x00	; 0
   uint8_t u8_isEqual = TRUE;
   
   while(str1[u8_counter] != END_OF_STRING && str1[u8_counter] != NEW_LINE)
    1fc0:	0a c0       	rjmp	.+20     	; 0x1fd6 <StringCompare+0x1a>
   {
      if(str1[u8_counter] != str2[u8_counter])
    1fc2:	fb 01       	movw	r30, r22
    1fc4:	e2 0f       	add	r30, r18
    1fc6:	f3 1f       	adc	r31, r19
    1fc8:	20 81       	ld	r18, Z
    1fca:	92 17       	cp	r25, r18
    1fcc:	19 f0       	breq	.+6      	; 0x1fd4 <StringCompare+0x18>
      {
         u8_isEqual = FALSE;
         u8_counter++;
    1fce:	4f 5f       	subi	r20, 0xFF	; 255
   
   while(str1[u8_counter] != END_OF_STRING && str1[u8_counter] != NEW_LINE)
   {
      if(str1[u8_counter] != str2[u8_counter])
      {
         u8_isEqual = FALSE;
    1fd0:	80 e0       	ldi	r24, 0x00	; 0
         u8_counter++;
         break;
    1fd2:	0e c0       	rjmp	.+28     	; 0x1ff0 <StringCompare+0x34>
      }
      u8_counter++;
    1fd4:	4f 5f       	subi	r20, 0xFF	; 255
uint8_t StringCompare(uint8_t * str1, uint8_t * str2)
{
   uint8_t u8_counter = 0;
   uint8_t u8_isEqual = TRUE;
   
   while(str1[u8_counter] != END_OF_STRING && str1[u8_counter] != NEW_LINE)
    1fd6:	24 2f       	mov	r18, r20
    1fd8:	30 e0       	ldi	r19, 0x00	; 0
    1fda:	fd 01       	movw	r30, r26
    1fdc:	e2 0f       	add	r30, r18
    1fde:	f3 1f       	adc	r31, r19
    1fe0:	90 81       	ld	r25, Z
    1fe2:	99 23       	and	r25, r25
    1fe4:	21 f0       	breq	.+8      	; 0x1fee <StringCompare+0x32>
    1fe6:	9d 30       	cpi	r25, 0x0D	; 13
    1fe8:	61 f7       	brne	.-40     	; 0x1fc2 <StringCompare+0x6>
* @return function error state.
*/
uint8_t StringCompare(uint8_t * str1, uint8_t * str2)
{
   uint8_t u8_counter = 0;
   uint8_t u8_isEqual = TRUE;
    1fea:	81 e0       	ldi	r24, 0x01	; 1
    1fec:	01 c0       	rjmp	.+2      	; 0x1ff0 <StringCompare+0x34>
    1fee:	81 e0       	ldi	r24, 0x01	; 1
         u8_counter++;
         break;
      }
      u8_counter++;
   }
   if( str2[u8_counter] != END_OF_STRING )
    1ff0:	fb 01       	movw	r30, r22
    1ff2:	e4 0f       	add	r30, r20
    1ff4:	f1 1d       	adc	r31, r1
    1ff6:	90 81       	ld	r25, Z
    1ff8:	91 11       	cpse	r25, r1
   {
      u8_isEqual = FALSE;
    1ffa:	80 e0       	ldi	r24, 0x00	; 0
   }
   return u8_isEqual;
}
    1ffc:	08 95       	ret

00001ffe <main>:

#include "App/ATM/ATM.h"

int main(void)
{
   ATM_Init();
    1ffe:	0e 94 92 04 	call	0x924	; 0x924 <ATM_Init>

   while (1)
   {
      ATM_SelectMode();  
    2002:	0e 94 ab 04 	call	0x956	; 0x956 <ATM_SelectMode>
    2006:	fd cf       	rjmp	.-6      	; 0x2002 <main+0x4>

00002008 <ADC_Init>:
	return 0;
}
uint8_t ADC_SetCallback(Ptr_VoidFuncVoid_t Callback){
	G_ADC_CALLBACK=Callback;
	return 0;
}
    2008:	86 b1       	in	r24, 0x06	; 6
    200a:	80 68       	ori	r24, 0x80	; 128
    200c:	86 b9       	out	0x06, r24	; 6
    200e:	86 b1       	in	r24, 0x06	; 6
    2010:	81 60       	ori	r24, 0x01	; 1
    2012:	86 b9       	out	0x06, r24	; 6
    2014:	87 b1       	in	r24, 0x07	; 7
    2016:	87 b9       	out	0x07, r24	; 7
    2018:	87 b1       	in	r24, 0x07	; 7
    201a:	87 b9       	out	0x07, r24	; 7
    201c:	86 b1       	in	r24, 0x06	; 6
    201e:	8f 7d       	andi	r24, 0xDF	; 223
    2020:	86 b9       	out	0x06, r24	; 6
    2022:	80 e0       	ldi	r24, 0x00	; 0
    2024:	08 95       	ret

00002026 <ADC_StartSingleConversion>:
    2026:	97 b1       	in	r25, 0x07	; 7
    2028:	89 2b       	or	r24, r25
    202a:	87 b9       	out	0x07, r24	; 7
    202c:	86 b1       	in	r24, 0x06	; 6
    202e:	80 64       	ori	r24, 0x40	; 64
    2030:	86 b9       	out	0x06, r24	; 6
    2032:	80 e0       	ldi	r24, 0x00	; 0
    2034:	08 95       	ret

00002036 <ADC_Read>:
    2036:	0f 93       	push	r16
    2038:	1f 93       	push	r17
    203a:	cf 93       	push	r28
    203c:	c8 2f       	mov	r28, r24
    203e:	8b 01       	movw	r16, r22
    2040:	0e 94 13 10 	call	0x2026	; 0x2026 <ADC_StartSingleConversion>
    2044:	34 9b       	sbis	0x06, 4	; 6
    2046:	fe cf       	rjmp	.-4      	; 0x2044 <ADC_Read+0xe>
    2048:	8c 2f       	mov	r24, r28
    204a:	0e 94 13 10 	call	0x2026	; 0x2026 <ADC_StartSingleConversion>
    204e:	34 9b       	sbis	0x06, 4	; 6
    2050:	fe cf       	rjmp	.-4      	; 0x204e <ADC_Read+0x18>
    2052:	86 b1       	in	r24, 0x06	; 6
    2054:	80 61       	ori	r24, 0x10	; 16
    2056:	86 b9       	out	0x06, r24	; 6
    2058:	84 b1       	in	r24, 0x04	; 4
    205a:	95 b1       	in	r25, 0x05	; 5
    205c:	f8 01       	movw	r30, r16
    205e:	91 83       	std	Z+1, r25	; 0x01
    2060:	80 83       	st	Z, r24
    2062:	80 e0       	ldi	r24, 0x00	; 0
    2064:	cf 91       	pop	r28
    2066:	1f 91       	pop	r17
    2068:	0f 91       	pop	r16
    206a:	08 95       	ret

0000206c <__vector_16>:

void __vector_16 (void) __attribute__((signal));

void __vector_16(void) {
    206c:	1f 92       	push	r1
    206e:	0f 92       	push	r0
    2070:	0f b6       	in	r0, 0x3f	; 63
    2072:	0f 92       	push	r0
    2074:	11 24       	eor	r1, r1
    2076:	2f 93       	push	r18
    2078:	3f 93       	push	r19
    207a:	4f 93       	push	r20
    207c:	5f 93       	push	r21
    207e:	6f 93       	push	r22
    2080:	7f 93       	push	r23
    2082:	8f 93       	push	r24
    2084:	9f 93       	push	r25
    2086:	af 93       	push	r26
    2088:	bf 93       	push	r27
    208a:	ef 93       	push	r30
    208c:	ff 93       	push	r31
	G_ADC_CALLBACK();
    208e:	e0 91 b4 04 	lds	r30, 0x04B4	; 0x8004b4 <G_ADC_CALLBACK>
    2092:	f0 91 b5 04 	lds	r31, 0x04B5	; 0x8004b5 <G_ADC_CALLBACK+0x1>
    2096:	09 95       	icall
}
    2098:	ff 91       	pop	r31
    209a:	ef 91       	pop	r30
    209c:	bf 91       	pop	r27
    209e:	af 91       	pop	r26
    20a0:	9f 91       	pop	r25
    20a2:	8f 91       	pop	r24
    20a4:	7f 91       	pop	r23
    20a6:	6f 91       	pop	r22
    20a8:	5f 91       	pop	r21
    20aa:	4f 91       	pop	r20
    20ac:	3f 91       	pop	r19
    20ae:	2f 91       	pop	r18
    20b0:	0f 90       	pop	r0
    20b2:	0f be       	out	0x3f, r0	; 63
    20b4:	0f 90       	pop	r0
    20b6:	1f 90       	pop	r1
    20b8:	18 95       	reti

000020ba <DIO_SetPinDirection>:
			break;
		default:
			break;	
	}	
	return ERROR_OK;
}
    20ba:	81 30       	cpi	r24, 0x01	; 1
    20bc:	d1 f0       	breq	.+52     	; 0x20f2 <DIO_SetPinDirection+0x38>
    20be:	28 f0       	brcs	.+10     	; 0x20ca <DIO_SetPinDirection+0x10>
    20c0:	82 30       	cpi	r24, 0x02	; 2
    20c2:	59 f1       	breq	.+86     	; 0x211a <DIO_SetPinDirection+0x60>
    20c4:	83 30       	cpi	r24, 0x03	; 3
    20c6:	e9 f1       	breq	.+122    	; 0x2142 <DIO_SetPinDirection+0x88>
    20c8:	4f c0       	rjmp	.+158    	; 0x2168 <DIO_SetPinDirection+0xae>
    20ca:	2a b3       	in	r18, 0x1a	; 26
    20cc:	81 e0       	ldi	r24, 0x01	; 1
    20ce:	90 e0       	ldi	r25, 0x00	; 0
    20d0:	06 2e       	mov	r0, r22
    20d2:	02 c0       	rjmp	.+4      	; 0x20d8 <DIO_SetPinDirection+0x1e>
    20d4:	88 0f       	add	r24, r24
    20d6:	99 1f       	adc	r25, r25
    20d8:	0a 94       	dec	r0
    20da:	e2 f7       	brpl	.-8      	; 0x20d4 <DIO_SetPinDirection+0x1a>
    20dc:	50 e0       	ldi	r21, 0x00	; 0
    20de:	02 c0       	rjmp	.+4      	; 0x20e4 <DIO_SetPinDirection+0x2a>
    20e0:	44 0f       	add	r20, r20
    20e2:	55 1f       	adc	r21, r21
    20e4:	6a 95       	dec	r22
    20e6:	e2 f7       	brpl	.-8      	; 0x20e0 <DIO_SetPinDirection+0x26>
    20e8:	80 95       	com	r24
    20ea:	82 23       	and	r24, r18
    20ec:	48 2b       	or	r20, r24
    20ee:	4a bb       	out	0x1a, r20	; 26
    20f0:	3b c0       	rjmp	.+118    	; 0x2168 <DIO_SetPinDirection+0xae>
    20f2:	27 b3       	in	r18, 0x17	; 23
    20f4:	81 e0       	ldi	r24, 0x01	; 1
    20f6:	90 e0       	ldi	r25, 0x00	; 0
    20f8:	06 2e       	mov	r0, r22
    20fa:	02 c0       	rjmp	.+4      	; 0x2100 <DIO_SetPinDirection+0x46>
    20fc:	88 0f       	add	r24, r24
    20fe:	99 1f       	adc	r25, r25
    2100:	0a 94       	dec	r0
    2102:	e2 f7       	brpl	.-8      	; 0x20fc <DIO_SetPinDirection+0x42>
    2104:	50 e0       	ldi	r21, 0x00	; 0
    2106:	02 c0       	rjmp	.+4      	; 0x210c <DIO_SetPinDirection+0x52>
    2108:	44 0f       	add	r20, r20
    210a:	55 1f       	adc	r21, r21
    210c:	6a 95       	dec	r22
    210e:	e2 f7       	brpl	.-8      	; 0x2108 <DIO_SetPinDirection+0x4e>
    2110:	80 95       	com	r24
    2112:	82 23       	and	r24, r18
    2114:	48 2b       	or	r20, r24
    2116:	47 bb       	out	0x17, r20	; 23
    2118:	27 c0       	rjmp	.+78     	; 0x2168 <DIO_SetPinDirection+0xae>
    211a:	24 b3       	in	r18, 0x14	; 20
    211c:	81 e0       	ldi	r24, 0x01	; 1
    211e:	90 e0       	ldi	r25, 0x00	; 0
    2120:	06 2e       	mov	r0, r22
    2122:	02 c0       	rjmp	.+4      	; 0x2128 <DIO_SetPinDirection+0x6e>
    2124:	88 0f       	add	r24, r24
    2126:	99 1f       	adc	r25, r25
    2128:	0a 94       	dec	r0
    212a:	e2 f7       	brpl	.-8      	; 0x2124 <DIO_SetPinDirection+0x6a>
    212c:	50 e0       	ldi	r21, 0x00	; 0
    212e:	02 c0       	rjmp	.+4      	; 0x2134 <DIO_SetPinDirection+0x7a>
    2130:	44 0f       	add	r20, r20
    2132:	55 1f       	adc	r21, r21
    2134:	6a 95       	dec	r22
    2136:	e2 f7       	brpl	.-8      	; 0x2130 <DIO_SetPinDirection+0x76>
    2138:	80 95       	com	r24
    213a:	82 23       	and	r24, r18
    213c:	48 2b       	or	r20, r24
    213e:	44 bb       	out	0x14, r20	; 20
    2140:	13 c0       	rjmp	.+38     	; 0x2168 <DIO_SetPinDirection+0xae>
    2142:	21 b3       	in	r18, 0x11	; 17
    2144:	81 e0       	ldi	r24, 0x01	; 1
    2146:	90 e0       	ldi	r25, 0x00	; 0
    2148:	06 2e       	mov	r0, r22
    214a:	02 c0       	rjmp	.+4      	; 0x2150 <DIO_SetPinDirection+0x96>
    214c:	88 0f       	add	r24, r24
    214e:	99 1f       	adc	r25, r25
    2150:	0a 94       	dec	r0
    2152:	e2 f7       	brpl	.-8      	; 0x214c <DIO_SetPinDirection+0x92>
    2154:	50 e0       	ldi	r21, 0x00	; 0
    2156:	02 c0       	rjmp	.+4      	; 0x215c <DIO_SetPinDirection+0xa2>
    2158:	44 0f       	add	r20, r20
    215a:	55 1f       	adc	r21, r21
    215c:	6a 95       	dec	r22
    215e:	e2 f7       	brpl	.-8      	; 0x2158 <DIO_SetPinDirection+0x9e>
    2160:	80 95       	com	r24
    2162:	82 23       	and	r24, r18
    2164:	48 2b       	or	r20, r24
    2166:	41 bb       	out	0x11, r20	; 17
    2168:	80 e0       	ldi	r24, 0x00	; 0
    216a:	08 95       	ret

0000216c <DIO_WritePin>:
    216c:	81 30       	cpi	r24, 0x01	; 1
    216e:	d1 f0       	breq	.+52     	; 0x21a4 <DIO_WritePin+0x38>
    2170:	28 f0       	brcs	.+10     	; 0x217c <DIO_WritePin+0x10>
    2172:	82 30       	cpi	r24, 0x02	; 2
    2174:	59 f1       	breq	.+86     	; 0x21cc <DIO_WritePin+0x60>
    2176:	83 30       	cpi	r24, 0x03	; 3
    2178:	e9 f1       	breq	.+122    	; 0x21f4 <DIO_WritePin+0x88>
    217a:	4f c0       	rjmp	.+158    	; 0x221a <DIO_WritePin+0xae>
    217c:	2b b3       	in	r18, 0x1b	; 27
    217e:	81 e0       	ldi	r24, 0x01	; 1
    2180:	90 e0       	ldi	r25, 0x00	; 0
    2182:	06 2e       	mov	r0, r22
    2184:	02 c0       	rjmp	.+4      	; 0x218a <DIO_WritePin+0x1e>
    2186:	88 0f       	add	r24, r24
    2188:	99 1f       	adc	r25, r25
    218a:	0a 94       	dec	r0
    218c:	e2 f7       	brpl	.-8      	; 0x2186 <DIO_WritePin+0x1a>
    218e:	50 e0       	ldi	r21, 0x00	; 0
    2190:	02 c0       	rjmp	.+4      	; 0x2196 <DIO_WritePin+0x2a>
    2192:	44 0f       	add	r20, r20
    2194:	55 1f       	adc	r21, r21
    2196:	6a 95       	dec	r22
    2198:	e2 f7       	brpl	.-8      	; 0x2192 <DIO_WritePin+0x26>
    219a:	80 95       	com	r24
    219c:	82 23       	and	r24, r18
    219e:	48 2b       	or	r20, r24
    21a0:	4b bb       	out	0x1b, r20	; 27
    21a2:	3b c0       	rjmp	.+118    	; 0x221a <DIO_WritePin+0xae>
    21a4:	28 b3       	in	r18, 0x18	; 24
    21a6:	81 e0       	ldi	r24, 0x01	; 1
    21a8:	90 e0       	ldi	r25, 0x00	; 0
    21aa:	06 2e       	mov	r0, r22
    21ac:	02 c0       	rjmp	.+4      	; 0x21b2 <DIO_WritePin+0x46>
    21ae:	88 0f       	add	r24, r24
    21b0:	99 1f       	adc	r25, r25
    21b2:	0a 94       	dec	r0
    21b4:	e2 f7       	brpl	.-8      	; 0x21ae <DIO_WritePin+0x42>
    21b6:	50 e0       	ldi	r21, 0x00	; 0
    21b8:	02 c0       	rjmp	.+4      	; 0x21be <DIO_WritePin+0x52>
    21ba:	44 0f       	add	r20, r20
    21bc:	55 1f       	adc	r21, r21
    21be:	6a 95       	dec	r22
    21c0:	e2 f7       	brpl	.-8      	; 0x21ba <DIO_WritePin+0x4e>
    21c2:	80 95       	com	r24
    21c4:	82 23       	and	r24, r18
    21c6:	48 2b       	or	r20, r24
    21c8:	48 bb       	out	0x18, r20	; 24
    21ca:	27 c0       	rjmp	.+78     	; 0x221a <DIO_WritePin+0xae>
    21cc:	25 b3       	in	r18, 0x15	; 21
    21ce:	81 e0       	ldi	r24, 0x01	; 1
    21d0:	90 e0       	ldi	r25, 0x00	; 0
    21d2:	06 2e       	mov	r0, r22
    21d4:	02 c0       	rjmp	.+4      	; 0x21da <DIO_WritePin+0x6e>
    21d6:	88 0f       	add	r24, r24
    21d8:	99 1f       	adc	r25, r25
    21da:	0a 94       	dec	r0
    21dc:	e2 f7       	brpl	.-8      	; 0x21d6 <DIO_WritePin+0x6a>
    21de:	50 e0       	ldi	r21, 0x00	; 0
    21e0:	02 c0       	rjmp	.+4      	; 0x21e6 <DIO_WritePin+0x7a>
    21e2:	44 0f       	add	r20, r20
    21e4:	55 1f       	adc	r21, r21
    21e6:	6a 95       	dec	r22
    21e8:	e2 f7       	brpl	.-8      	; 0x21e2 <DIO_WritePin+0x76>
    21ea:	80 95       	com	r24
    21ec:	82 23       	and	r24, r18
    21ee:	48 2b       	or	r20, r24
    21f0:	45 bb       	out	0x15, r20	; 21
    21f2:	13 c0       	rjmp	.+38     	; 0x221a <DIO_WritePin+0xae>
    21f4:	22 b3       	in	r18, 0x12	; 18
    21f6:	81 e0       	ldi	r24, 0x01	; 1
    21f8:	90 e0       	ldi	r25, 0x00	; 0
    21fa:	06 2e       	mov	r0, r22
    21fc:	02 c0       	rjmp	.+4      	; 0x2202 <DIO_WritePin+0x96>
    21fe:	88 0f       	add	r24, r24
    2200:	99 1f       	adc	r25, r25
    2202:	0a 94       	dec	r0
    2204:	e2 f7       	brpl	.-8      	; 0x21fe <DIO_WritePin+0x92>
    2206:	50 e0       	ldi	r21, 0x00	; 0
    2208:	02 c0       	rjmp	.+4      	; 0x220e <DIO_WritePin+0xa2>
    220a:	44 0f       	add	r20, r20
    220c:	55 1f       	adc	r21, r21
    220e:	6a 95       	dec	r22
    2210:	e2 f7       	brpl	.-8      	; 0x220a <DIO_WritePin+0x9e>
    2212:	80 95       	com	r24
    2214:	82 23       	and	r24, r18
    2216:	48 2b       	or	r20, r24
    2218:	42 bb       	out	0x12, r20	; 18
    221a:	80 e0       	ldi	r24, 0x00	; 0
    221c:	08 95       	ret

0000221e <DIO_ReadPin>:
uint8_t DIO_ReadPin(uint8_t PortName,uint8_t PinNo,ptr_uint8_t PinData)
{
	switch(PortName)
    221e:	81 30       	cpi	r24, 0x01	; 1
    2220:	89 f0       	breq	.+34     	; 0x2244 <DIO_ReadPin+0x26>
    2222:	28 f0       	brcs	.+10     	; 0x222e <DIO_ReadPin+0x10>
    2224:	82 30       	cpi	r24, 0x02	; 2
    2226:	c9 f0       	breq	.+50     	; 0x225a <DIO_ReadPin+0x3c>
    2228:	83 30       	cpi	r24, 0x03	; 3
    222a:	11 f1       	breq	.+68     	; 0x2270 <DIO_ReadPin+0x52>
    222c:	2b c0       	rjmp	.+86     	; 0x2284 <DIO_ReadPin+0x66>
	{
		case PORT_A:
			* PinData=BIT_GET(PINA,PinNo);
    222e:	89 b3       	in	r24, 0x19	; 25
    2230:	90 e0       	ldi	r25, 0x00	; 0
    2232:	02 c0       	rjmp	.+4      	; 0x2238 <DIO_ReadPin+0x1a>
    2234:	95 95       	asr	r25
    2236:	87 95       	ror	r24
    2238:	6a 95       	dec	r22
    223a:	e2 f7       	brpl	.-8      	; 0x2234 <DIO_ReadPin+0x16>
    223c:	81 70       	andi	r24, 0x01	; 1
    223e:	fa 01       	movw	r30, r20
    2240:	80 83       	st	Z, r24
			break;
    2242:	20 c0       	rjmp	.+64     	; 0x2284 <DIO_ReadPin+0x66>
		case PORT_B:
			* PinData=BIT_GET(PINB,PinNo);
    2244:	86 b3       	in	r24, 0x16	; 22
    2246:	90 e0       	ldi	r25, 0x00	; 0
    2248:	02 c0       	rjmp	.+4      	; 0x224e <DIO_ReadPin+0x30>
    224a:	95 95       	asr	r25
    224c:	87 95       	ror	r24
    224e:	6a 95       	dec	r22
    2250:	e2 f7       	brpl	.-8      	; 0x224a <DIO_ReadPin+0x2c>
    2252:	81 70       	andi	r24, 0x01	; 1
    2254:	fa 01       	movw	r30, r20
    2256:	80 83       	st	Z, r24
			break;
    2258:	15 c0       	rjmp	.+42     	; 0x2284 <DIO_ReadPin+0x66>
		case PORT_C:
			* PinData=BIT_GET(PINC,PinNo);
    225a:	83 b3       	in	r24, 0x13	; 19
    225c:	90 e0       	ldi	r25, 0x00	; 0
    225e:	02 c0       	rjmp	.+4      	; 0x2264 <DIO_ReadPin+0x46>
    2260:	95 95       	asr	r25
    2262:	87 95       	ror	r24
    2264:	6a 95       	dec	r22
    2266:	e2 f7       	brpl	.-8      	; 0x2260 <DIO_ReadPin+0x42>
    2268:	81 70       	andi	r24, 0x01	; 1
    226a:	fa 01       	movw	r30, r20
    226c:	80 83       	st	Z, r24
			break;
    226e:	0a c0       	rjmp	.+20     	; 0x2284 <DIO_ReadPin+0x66>
		case PORT_D:
			* PinData=BIT_GET(PIND,PinNo);
    2270:	80 b3       	in	r24, 0x10	; 16
    2272:	90 e0       	ldi	r25, 0x00	; 0
    2274:	02 c0       	rjmp	.+4      	; 0x227a <DIO_ReadPin+0x5c>
    2276:	95 95       	asr	r25
    2278:	87 95       	ror	r24
    227a:	6a 95       	dec	r22
    227c:	e2 f7       	brpl	.-8      	; 0x2276 <DIO_ReadPin+0x58>
    227e:	81 70       	andi	r24, 0x01	; 1
    2280:	fa 01       	movw	r30, r20
    2282:	80 83       	st	Z, r24
			break;
		default:
			break;
	}
	return ERROR_OK;
}
    2284:	80 e0       	ldi	r24, 0x00	; 0
    2286:	08 95       	ret

00002288 <DIO_EnablePinPullup>:


uint8_t DIO_EnablePinPullup(uint8_t PortName,uint8_t PinNo)
{
	switch(PortName)
    2288:	81 30       	cpi	r24, 0x01	; 1
    228a:	89 f0       	breq	.+34     	; 0x22ae <DIO_EnablePinPullup+0x26>
    228c:	28 f0       	brcs	.+10     	; 0x2298 <DIO_EnablePinPullup+0x10>
    228e:	82 30       	cpi	r24, 0x02	; 2
    2290:	c9 f0       	breq	.+50     	; 0x22c4 <DIO_EnablePinPullup+0x3c>
    2292:	83 30       	cpi	r24, 0x03	; 3
    2294:	11 f1       	breq	.+68     	; 0x22da <DIO_EnablePinPullup+0x52>
    2296:	2b c0       	rjmp	.+86     	; 0x22ee <DIO_EnablePinPullup+0x66>
	{
		case PORT_A:
			BIT_WRITE(PORTA,PinNo,PIN_HIGH);
    2298:	81 e0       	ldi	r24, 0x01	; 1
    229a:	90 e0       	ldi	r25, 0x00	; 0
    229c:	02 c0       	rjmp	.+4      	; 0x22a2 <DIO_EnablePinPullup+0x1a>
    229e:	88 0f       	add	r24, r24
    22a0:	99 1f       	adc	r25, r25
    22a2:	6a 95       	dec	r22
    22a4:	e2 f7       	brpl	.-8      	; 0x229e <DIO_EnablePinPullup+0x16>
    22a6:	9b b3       	in	r25, 0x1b	; 27
    22a8:	89 2b       	or	r24, r25
    22aa:	8b bb       	out	0x1b, r24	; 27
			break;
    22ac:	20 c0       	rjmp	.+64     	; 0x22ee <DIO_EnablePinPullup+0x66>
		case PORT_B:
			BIT_WRITE(PORTB,PinNo,PIN_HIGH);
    22ae:	81 e0       	ldi	r24, 0x01	; 1
    22b0:	90 e0       	ldi	r25, 0x00	; 0
    22b2:	02 c0       	rjmp	.+4      	; 0x22b8 <DIO_EnablePinPullup+0x30>
    22b4:	88 0f       	add	r24, r24
    22b6:	99 1f       	adc	r25, r25
    22b8:	6a 95       	dec	r22
    22ba:	e2 f7       	brpl	.-8      	; 0x22b4 <DIO_EnablePinPullup+0x2c>
    22bc:	98 b3       	in	r25, 0x18	; 24
    22be:	89 2b       	or	r24, r25
    22c0:	88 bb       	out	0x18, r24	; 24
			break;                            
    22c2:	15 c0       	rjmp	.+42     	; 0x22ee <DIO_EnablePinPullup+0x66>
		case PORT_C:                          
			BIT_WRITE(PORTC,PinNo,PIN_HIGH);
    22c4:	81 e0       	ldi	r24, 0x01	; 1
    22c6:	90 e0       	ldi	r25, 0x00	; 0
    22c8:	02 c0       	rjmp	.+4      	; 0x22ce <DIO_EnablePinPullup+0x46>
    22ca:	88 0f       	add	r24, r24
    22cc:	99 1f       	adc	r25, r25
    22ce:	6a 95       	dec	r22
    22d0:	e2 f7       	brpl	.-8      	; 0x22ca <DIO_EnablePinPullup+0x42>
    22d2:	95 b3       	in	r25, 0x15	; 21
    22d4:	89 2b       	or	r24, r25
    22d6:	85 bb       	out	0x15, r24	; 21
			break;                            
    22d8:	0a c0       	rjmp	.+20     	; 0x22ee <DIO_EnablePinPullup+0x66>
		case PORT_D:                          
			BIT_WRITE(PORTD,PinNo,PIN_HIGH);
    22da:	81 e0       	ldi	r24, 0x01	; 1
    22dc:	90 e0       	ldi	r25, 0x00	; 0
    22de:	02 c0       	rjmp	.+4      	; 0x22e4 <DIO_EnablePinPullup+0x5c>
    22e0:	88 0f       	add	r24, r24
    22e2:	99 1f       	adc	r25, r25
    22e4:	6a 95       	dec	r22
    22e6:	e2 f7       	brpl	.-8      	; 0x22e0 <DIO_EnablePinPullup+0x58>
    22e8:	92 b3       	in	r25, 0x12	; 18
    22ea:	89 2b       	or	r24, r25
    22ec:	82 bb       	out	0x12, r24	; 18
			break;
		default:
			break;
	}	
	return ERROR_OK;
    22ee:	80 e0       	ldi	r24, 0x00	; 0
    22f0:	08 95       	ret

000022f2 <I2C_Init>:
   /* return data received */
   *Data = *ptr_I2CDataR;
   
   /* return success message */
   return E_I2C_SUCCESS;
}
    22f2:	81 11       	cpse	r24, r1
    22f4:	0b c0       	rjmp	.+22     	; 0x230c <I2C_Init+0x1a>
    22f6:	80 91 21 04 	lds	r24, 0x0421	; 0x800421 <I2C_CH_0_PRESCALER>
    22fa:	81 b9       	out	0x01, r24	; 1
    22fc:	80 91 1f 04 	lds	r24, 0x041F	; 0x80041f <I2C_CH_0_BIT_RATE>
    2300:	80 b9       	out	0x00, r24	; 0
    2302:	80 91 20 04 	lds	r24, 0x0420	; 0x800420 <I2C_CH_0_CONTROL_MASK>
    2306:	86 bf       	out	0x36, r24	; 54
    2308:	80 e0       	ldi	r24, 0x00	; 0
    230a:	08 95       	ret
    230c:	82 e0       	ldi	r24, 0x02	; 2
    230e:	08 95       	ret

00002310 <I2C_Start>:
    2310:	81 11       	cpse	r24, r1
    2312:	07 c0       	rjmp	.+14     	; 0x2322 <I2C_Start+0x12>
    2314:	84 ea       	ldi	r24, 0xA4	; 164
    2316:	86 bf       	out	0x36, r24	; 54
    2318:	06 b6       	in	r0, 0x36	; 54
    231a:	07 fe       	sbrs	r0, 7
    231c:	fd cf       	rjmp	.-6      	; 0x2318 <I2C_Start+0x8>
    231e:	80 e0       	ldi	r24, 0x00	; 0
    2320:	08 95       	ret
    2322:	82 e0       	ldi	r24, 0x02	; 2
    2324:	08 95       	ret

00002326 <I2C_RepeatedStart>:
    2326:	81 11       	cpse	r24, r1
    2328:	08 c0       	rjmp	.+16     	; 0x233a <I2C_RepeatedStart+0x14>
    232a:	86 b7       	in	r24, 0x36	; 54
    232c:	80 6a       	ori	r24, 0xA0	; 160
    232e:	86 bf       	out	0x36, r24	; 54
    2330:	06 b6       	in	r0, 0x36	; 54
    2332:	07 fe       	sbrs	r0, 7
    2334:	fd cf       	rjmp	.-6      	; 0x2330 <I2C_RepeatedStart+0xa>
    2336:	80 e0       	ldi	r24, 0x00	; 0
    2338:	08 95       	ret
    233a:	82 e0       	ldi	r24, 0x02	; 2
    233c:	08 95       	ret

0000233e <I2C_Write>:
    233e:	81 11       	cpse	r24, r1
    2340:	08 c0       	rjmp	.+16     	; 0x2352 <I2C_Write+0x14>
    2342:	63 b9       	out	0x03, r22	; 3
    2344:	84 e8       	ldi	r24, 0x84	; 132
    2346:	86 bf       	out	0x36, r24	; 54
    2348:	06 b6       	in	r0, 0x36	; 54
    234a:	07 fe       	sbrs	r0, 7
    234c:	fd cf       	rjmp	.-6      	; 0x2348 <I2C_Write+0xa>
    234e:	80 e0       	ldi	r24, 0x00	; 0
    2350:	08 95       	ret
    2352:	82 e0       	ldi	r24, 0x02	; 2
    2354:	08 95       	ret

00002356 <I2C_ReadNoAck>:
* @return function error state.
*/
I2C_ERROR_state_t I2C_ReadNoAck(uint8_t I2C_CH, uint8_t * Data)
{
   /* making sure an initialized pointer is sent to the function */
   if(NULL_PTR == Data)
    2356:	61 15       	cp	r22, r1
    2358:	71 05       	cpc	r23, r1
    235a:	81 f0       	breq	.+32     	; 0x237c <I2C_ReadNoAck+0x26>
   
   /* variable to store the addresses of the required channel */
   volatile uint8_t * ptr_I2CControlR;
   volatile uint8_t * ptr_I2CDataR;
   
   switch(I2C_CH)
    235c:	81 11       	cpse	r24, r1
    235e:	10 c0       	rjmp	.+32     	; 0x2380 <I2C_ReadNoAck+0x2a>
      #endif
      default:
         return E_I2C_INVALID_CH;
   }
   /* Clear Ack bit */
   *ptr_I2CControlR &= ~(I2C_ACK_EN);
    2360:	86 b7       	in	r24, 0x36	; 54
    2362:	8f 7b       	andi	r24, 0xBF	; 191
    2364:	86 bf       	out	0x36, r24	; 54
   
   /* start receiving and don't send ack at end. */
   *ptr_I2CControlR |= (I2C_INTERRUPT_FLAG);
    2366:	86 b7       	in	r24, 0x36	; 54
    2368:	80 68       	ori	r24, 0x80	; 128
    236a:	86 bf       	out	0x36, r24	; 54
   /* loop until interrupt flag is raised */
   while (!(*ptr_I2CControlR & I2C_INTERRUPT_FLAG))
    236c:	06 b6       	in	r0, 0x36	; 54
    236e:	07 fe       	sbrs	r0, 7
    2370:	fd cf       	rjmp	.-6      	; 0x236c <I2C_ReadNoAck+0x16>
      #if TEST
      *ptr_I2CControlR |= I2C_INTERRUPT_FLAG;
      #endif
   }
   /* return data received */
   *Data = *ptr_I2CDataR;
    2372:	83 b1       	in	r24, 0x03	; 3
    2374:	fb 01       	movw	r30, r22
    2376:	80 83       	st	Z, r24
   
   /* return success message */
   return E_I2C_SUCCESS;
    2378:	80 e0       	ldi	r24, 0x00	; 0
    237a:	08 95       	ret
I2C_ERROR_state_t I2C_ReadNoAck(uint8_t I2C_CH, uint8_t * Data)
{
   /* making sure an initialized pointer is sent to the function */
   if(NULL_PTR == Data)
   {
      return E_I2C_NULL_PTR;
    237c:	81 e0       	ldi	r24, 0x01	; 1
    237e:	08 95       	ret
         ptr_I2CDataR = &I2C_DATA_R;
         ptr_I2CControlR = &I2C_CONTROL_R;
         break;
      #endif
      default:
         return E_I2C_INVALID_CH;
    2380:	82 e0       	ldi	r24, 0x02	; 2
   /* return data received */
   *Data = *ptr_I2CDataR;
   
   /* return success message */
   return E_I2C_SUCCESS;
}
    2382:	08 95       	ret

00002384 <I2C_Stop>:
I2C_ERROR_state_t I2C_Stop(uint8_t I2C_CH)
{
   /* variable to store the addresses of the required channel */
   volatile uint8_t * ptr_I2CControlR;
   
   switch(I2C_CH)
    2384:	81 11       	cpse	r24, r1
    2386:	08 c0       	rjmp	.+16     	; 0x2398 <I2C_Stop+0x14>
      default:
         return E_I2C_INVALID_CH;
   }
   
   /* set stop condition */
   *ptr_I2CControlR = (I2C_INTERRUPT_FLAG | I2C_EN | I2C_STOP_BIT);
    2388:	84 e9       	ldi	r24, 0x94	; 148
    238a:	86 bf       	out	0x36, r24	; 54
   
   while (*ptr_I2CControlR & I2C_STOP_BIT)
    238c:	96 b7       	in	r25, 0x36	; 54
    238e:	89 2f       	mov	r24, r25
    2390:	80 71       	andi	r24, 0x10	; 16
    2392:	94 fd       	sbrc	r25, 4
    2394:	fb cf       	rjmp	.-10     	; 0x238c <I2C_Stop+0x8>
    2396:	08 95       	ret
      case I2C_CH_0:
         ptr_I2CControlR = &I2C_CONTROL_R;
         break;
      #endif
      default:
         return E_I2C_INVALID_CH;
    2398:	82 e0       	ldi	r24, 0x02	; 2
      *ptr_I2CControlR &= ~(I2C_STOP_BIT);
      #endif
   }
   /* return success message */
   return E_I2C_SUCCESS;
}
    239a:	08 95       	ret

0000239c <SPI_Init>:
{
	uint8_t ErrRetVal = 0;
		if (callBack != NULL_PTR)
			SPI_TX_Complete_callback = callBack;
		return ErrRetVal;
}
    239c:	82 30       	cpi	r24, 0x02	; 2
    239e:	90 f5       	brcc	.+100    	; 0x2404 <SPI_Init+0x68>
    23a0:	1d b8       	out	0x0d, r1	; 13
    23a2:	8d b1       	in	r24, 0x0d	; 13
    23a4:	80 61       	ori	r24, 0x10	; 16
    23a6:	8d b9       	out	0x0d, r24	; 13
    23a8:	41 e0       	ldi	r20, 0x01	; 1
    23aa:	64 e0       	ldi	r22, 0x04	; 4
    23ac:	81 e0       	ldi	r24, 0x01	; 1
    23ae:	0e 94 5d 10 	call	0x20ba	; 0x20ba <DIO_SetPinDirection>
    23b2:	41 e0       	ldi	r20, 0x01	; 1
    23b4:	64 e0       	ldi	r22, 0x04	; 4
    23b6:	81 e0       	ldi	r24, 0x01	; 1
    23b8:	0e 94 b6 10 	call	0x216c	; 0x216c <DIO_WritePin>
    23bc:	41 e0       	ldi	r20, 0x01	; 1
    23be:	67 e0       	ldi	r22, 0x07	; 7
    23c0:	81 e0       	ldi	r24, 0x01	; 1
    23c2:	0e 94 5d 10 	call	0x20ba	; 0x20ba <DIO_SetPinDirection>
    23c6:	41 e0       	ldi	r20, 0x01	; 1
    23c8:	65 e0       	ldi	r22, 0x05	; 5
    23ca:	81 e0       	ldi	r24, 0x01	; 1
    23cc:	0e 94 5d 10 	call	0x20ba	; 0x20ba <DIO_SetPinDirection>
    23d0:	8d b1       	in	r24, 0x0d	; 13
    23d2:	84 60       	ori	r24, 0x04	; 4
    23d4:	8d b9       	out	0x0d, r24	; 13
    23d6:	8d b1       	in	r24, 0x0d	; 13
    23d8:	87 7f       	andi	r24, 0xF7	; 247
    23da:	8d b9       	out	0x0d, r24	; 13
    23dc:	8d b1       	in	r24, 0x0d	; 13
    23de:	8f 7d       	andi	r24, 0xDF	; 223
    23e0:	8d b9       	out	0x0d, r24	; 13
    23e2:	8e b1       	in	r24, 0x0e	; 14
    23e4:	8e 7f       	andi	r24, 0xFE	; 254
    23e6:	8e b9       	out	0x0e, r24	; 14
    23e8:	8d b1       	in	r24, 0x0d	; 13
    23ea:	82 60       	ori	r24, 0x02	; 2
    23ec:	8d b9       	out	0x0d, r24	; 13
    23ee:	8d b1       	in	r24, 0x0d	; 13
    23f0:	81 60       	ori	r24, 0x01	; 1
    23f2:	8d b9       	out	0x0d, r24	; 13
    23f4:	8e b1       	in	r24, 0x0e	; 14
    23f6:	8e b1       	in	r24, 0x0e	; 14
    23f8:	8f b1       	in	r24, 0x0f	; 15
    23fa:	8d b1       	in	r24, 0x0d	; 13
    23fc:	80 64       	ori	r24, 0x40	; 64
    23fe:	8d b9       	out	0x0d, r24	; 13
    2400:	80 e0       	ldi	r24, 0x00	; 0
    2402:	08 95       	ret
    2404:	81 e0       	ldi	r24, 0x01	; 1
    2406:	08 95       	ret

00002408 <SPI_TransmitChar>:
    2408:	cf 93       	push	r28
    240a:	42 30       	cpi	r20, 0x02	; 2
    240c:	60 f4       	brcc	.+24     	; 0x2426 <SPI_TransmitChar+0x1e>
    240e:	c6 2f       	mov	r28, r22
    2410:	40 e0       	ldi	r20, 0x00	; 0
    2412:	64 e0       	ldi	r22, 0x04	; 4
    2414:	81 e0       	ldi	r24, 0x01	; 1
    2416:	0e 94 b6 10 	call	0x216c	; 0x216c <DIO_WritePin>
    241a:	cf b9       	out	0x0f, r28	; 15
    241c:	76 9b       	sbis	0x0e, 6	; 14
    241e:	05 c0       	rjmp	.+10     	; 0x242a <SPI_TransmitChar+0x22>
    2420:	8f b1       	in	r24, 0x0f	; 15
    2422:	84 e0       	ldi	r24, 0x04	; 4
    2424:	03 c0       	rjmp	.+6      	; 0x242c <SPI_TransmitChar+0x24>
    2426:	83 e0       	ldi	r24, 0x03	; 3
    2428:	01 c0       	rjmp	.+2      	; 0x242c <SPI_TransmitChar+0x24>
    242a:	80 e0       	ldi	r24, 0x00	; 0
    242c:	cf 91       	pop	r28
    242e:	08 95       	ret

00002430 <SPI_ReceiveString>:
    2430:	cf 93       	push	r28
    2432:	df 93       	push	r29
    2434:	eb 01       	movw	r28, r22
    2436:	41 e0       	ldi	r20, 0x01	; 1
    2438:	68 81       	ld	r22, Y
    243a:	81 e0       	ldi	r24, 0x01	; 1
    243c:	0e 94 04 12 	call	0x2408	; 0x2408 <SPI_TransmitChar>
    2440:	77 9b       	sbis	0x0e, 7	; 14
    2442:	fe cf       	rjmp	.-4      	; 0x2440 <SPI_ReceiveString+0x10>
    2444:	8f b1       	in	r24, 0x0f	; 15
    2446:	88 83       	st	Y, r24
    2448:	0e 94 b4 0f 	call	0x1f68	; 0x1f68 <dummy_delay>
    244c:	88 81       	ld	r24, Y
    244e:	88 23       	and	r24, r24
    2450:	11 f0       	breq	.+4      	; 0x2456 <SPI_ReceiveString+0x26>
    2452:	21 96       	adiw	r28, 0x01	; 1
    2454:	f0 cf       	rjmp	.-32     	; 0x2436 <SPI_ReceiveString+0x6>
    2456:	df 91       	pop	r29
    2458:	cf 91       	pop	r28
    245a:	08 95       	ret

0000245c <__vector_12>:

void __vector_12(void)
{
    245c:	1f 92       	push	r1
    245e:	0f 92       	push	r0
    2460:	0f b6       	in	r0, 0x3f	; 63
    2462:	0f 92       	push	r0
    2464:	11 24       	eor	r1, r1
    2466:	2f 93       	push	r18
    2468:	3f 93       	push	r19
    246a:	4f 93       	push	r20
    246c:	5f 93       	push	r21
    246e:	6f 93       	push	r22
    2470:	7f 93       	push	r23
    2472:	8f 93       	push	r24
    2474:	9f 93       	push	r25
    2476:	af 93       	push	r26
    2478:	bf 93       	push	r27
    247a:	ef 93       	push	r30
    247c:	ff 93       	push	r31
	if (SPI_TX_Complete_callback != NULL_PTR)
    247e:	e0 91 92 04 	lds	r30, 0x0492	; 0x800492 <SPI_TX_Complete_callback>
    2482:	f0 91 93 04 	lds	r31, 0x0493	; 0x800493 <SPI_TX_Complete_callback+0x1>
    2486:	30 97       	sbiw	r30, 0x00	; 0
    2488:	09 f0       	breq	.+2      	; 0x248c <__vector_12+0x30>
		SPI_TX_Complete_callback();
    248a:	09 95       	icall
}
    248c:	ff 91       	pop	r31
    248e:	ef 91       	pop	r30
    2490:	bf 91       	pop	r27
    2492:	af 91       	pop	r26
    2494:	9f 91       	pop	r25
    2496:	8f 91       	pop	r24
    2498:	7f 91       	pop	r23
    249a:	6f 91       	pop	r22
    249c:	5f 91       	pop	r21
    249e:	4f 91       	pop	r20
    24a0:	3f 91       	pop	r19
    24a2:	2f 91       	pop	r18
    24a4:	0f 90       	pop	r0
    24a6:	0f be       	out	0x3f, r0	; 63
    24a8:	0f 90       	pop	r0
    24aa:	1f 90       	pop	r1
    24ac:	18 95       	reti

000024ae <__vector_11>:
	default:
		retVal = EXIT_FAILURE;
	}
	return retVal;
}
void __vector_11(void) {
    24ae:	1f 92       	push	r1
    24b0:	0f 92       	push	r0
    24b2:	0f b6       	in	r0, 0x3f	; 63
    24b4:	0f 92       	push	r0
    24b6:	11 24       	eor	r1, r1
    24b8:	2f 93       	push	r18
    24ba:	3f 93       	push	r19
    24bc:	4f 93       	push	r20
    24be:	5f 93       	push	r21
    24c0:	6f 93       	push	r22
    24c2:	7f 93       	push	r23
    24c4:	8f 93       	push	r24
    24c6:	9f 93       	push	r25
    24c8:	af 93       	push	r26
    24ca:	bf 93       	push	r27
    24cc:	ef 93       	push	r30
    24ce:	ff 93       	push	r31
	if (TIM0_OVFAction_callback != NULL_PTR)
    24d0:	e0 91 9a 04 	lds	r30, 0x049A	; 0x80049a <TIM0_OVFAction_callback>
    24d4:	f0 91 9b 04 	lds	r31, 0x049B	; 0x80049b <TIM0_OVFAction_callback+0x1>
    24d8:	30 97       	sbiw	r30, 0x00	; 0
    24da:	09 f0       	breq	.+2      	; 0x24de <__vector_11+0x30>
		TIM0_OVFAction_callback();
    24dc:	09 95       	icall
}
    24de:	ff 91       	pop	r31
    24e0:	ef 91       	pop	r30
    24e2:	bf 91       	pop	r27
    24e4:	af 91       	pop	r26
    24e6:	9f 91       	pop	r25
    24e8:	8f 91       	pop	r24
    24ea:	7f 91       	pop	r23
    24ec:	6f 91       	pop	r22
    24ee:	5f 91       	pop	r21
    24f0:	4f 91       	pop	r20
    24f2:	3f 91       	pop	r19
    24f4:	2f 91       	pop	r18
    24f6:	0f 90       	pop	r0
    24f8:	0f be       	out	0x3f, r0	; 63
    24fa:	0f 90       	pop	r0
    24fc:	1f 90       	pop	r1
    24fe:	18 95       	reti

00002500 <__vector_10>:
void __vector_10(void) {
    2500:	1f 92       	push	r1
    2502:	0f 92       	push	r0
    2504:	0f b6       	in	r0, 0x3f	; 63
    2506:	0f 92       	push	r0
    2508:	11 24       	eor	r1, r1
    250a:	2f 93       	push	r18
    250c:	3f 93       	push	r19
    250e:	4f 93       	push	r20
    2510:	5f 93       	push	r21
    2512:	6f 93       	push	r22
    2514:	7f 93       	push	r23
    2516:	8f 93       	push	r24
    2518:	9f 93       	push	r25
    251a:	af 93       	push	r26
    251c:	bf 93       	push	r27
    251e:	ef 93       	push	r30
    2520:	ff 93       	push	r31
	if (TIM0_OCAction_callback != NULL_PTR)
    2522:	e0 91 98 04 	lds	r30, 0x0498	; 0x800498 <TIM0_OCAction_callback>
    2526:	f0 91 99 04 	lds	r31, 0x0499	; 0x800499 <TIM0_OCAction_callback+0x1>
    252a:	30 97       	sbiw	r30, 0x00	; 0
    252c:	09 f0       	breq	.+2      	; 0x2530 <__vector_10+0x30>
		TIM0_OCAction_callback();
    252e:	09 95       	icall
}
    2530:	ff 91       	pop	r31
    2532:	ef 91       	pop	r30
    2534:	bf 91       	pop	r27
    2536:	af 91       	pop	r26
    2538:	9f 91       	pop	r25
    253a:	8f 91       	pop	r24
    253c:	7f 91       	pop	r23
    253e:	6f 91       	pop	r22
    2540:	5f 91       	pop	r21
    2542:	4f 91       	pop	r20
    2544:	3f 91       	pop	r19
    2546:	2f 91       	pop	r18
    2548:	0f 90       	pop	r0
    254a:	0f be       	out	0x3f, r0	; 63
    254c:	0f 90       	pop	r0
    254e:	1f 90       	pop	r1
    2550:	18 95       	reti

00002552 <__vector_5>:
void __vector_5(void) {
    2552:	1f 92       	push	r1
    2554:	0f 92       	push	r0
    2556:	0f b6       	in	r0, 0x3f	; 63
    2558:	0f 92       	push	r0
    255a:	11 24       	eor	r1, r1
    255c:	2f 93       	push	r18
    255e:	3f 93       	push	r19
    2560:	4f 93       	push	r20
    2562:	5f 93       	push	r21
    2564:	6f 93       	push	r22
    2566:	7f 93       	push	r23
    2568:	8f 93       	push	r24
    256a:	9f 93       	push	r25
    256c:	af 93       	push	r26
    256e:	bf 93       	push	r27
    2570:	ef 93       	push	r30
    2572:	ff 93       	push	r31
	if (TIM2_OVFAction_callback != NULL_PTR)
    2574:	e0 91 96 04 	lds	r30, 0x0496	; 0x800496 <TIM2_OVFAction_callback>
    2578:	f0 91 97 04 	lds	r31, 0x0497	; 0x800497 <TIM2_OVFAction_callback+0x1>
    257c:	30 97       	sbiw	r30, 0x00	; 0
    257e:	09 f0       	breq	.+2      	; 0x2582 <__vector_5+0x30>
		TIM2_OVFAction_callback();
    2580:	09 95       	icall
}
    2582:	ff 91       	pop	r31
    2584:	ef 91       	pop	r30
    2586:	bf 91       	pop	r27
    2588:	af 91       	pop	r26
    258a:	9f 91       	pop	r25
    258c:	8f 91       	pop	r24
    258e:	7f 91       	pop	r23
    2590:	6f 91       	pop	r22
    2592:	5f 91       	pop	r21
    2594:	4f 91       	pop	r20
    2596:	3f 91       	pop	r19
    2598:	2f 91       	pop	r18
    259a:	0f 90       	pop	r0
    259c:	0f be       	out	0x3f, r0	; 63
    259e:	0f 90       	pop	r0
    25a0:	1f 90       	pop	r1
    25a2:	18 95       	reti

000025a4 <__vector_4>:
void __vector_4(void) {
    25a4:	1f 92       	push	r1
    25a6:	0f 92       	push	r0
    25a8:	0f b6       	in	r0, 0x3f	; 63
    25aa:	0f 92       	push	r0
    25ac:	11 24       	eor	r1, r1
    25ae:	2f 93       	push	r18
    25b0:	3f 93       	push	r19
    25b2:	4f 93       	push	r20
    25b4:	5f 93       	push	r21
    25b6:	6f 93       	push	r22
    25b8:	7f 93       	push	r23
    25ba:	8f 93       	push	r24
    25bc:	9f 93       	push	r25
    25be:	af 93       	push	r26
    25c0:	bf 93       	push	r27
    25c2:	ef 93       	push	r30
    25c4:	ff 93       	push	r31
	if (TIM2_OCAction_callback != NULL_PTR)
    25c6:	e0 91 94 04 	lds	r30, 0x0494	; 0x800494 <TIM2_OCAction_callback>
    25ca:	f0 91 95 04 	lds	r31, 0x0495	; 0x800495 <TIM2_OCAction_callback+0x1>
    25ce:	30 97       	sbiw	r30, 0x00	; 0
    25d0:	09 f0       	breq	.+2      	; 0x25d4 <__vector_4+0x30>
		TIM2_OCAction_callback();
    25d2:	09 95       	icall
}
    25d4:	ff 91       	pop	r31
    25d6:	ef 91       	pop	r30
    25d8:	bf 91       	pop	r27
    25da:	af 91       	pop	r26
    25dc:	9f 91       	pop	r25
    25de:	8f 91       	pop	r24
    25e0:	7f 91       	pop	r23
    25e2:	6f 91       	pop	r22
    25e4:	5f 91       	pop	r21
    25e6:	4f 91       	pop	r20
    25e8:	3f 91       	pop	r19
    25ea:	2f 91       	pop	r18
    25ec:	0f 90       	pop	r0
    25ee:	0f be       	out	0x3f, r0	; 63
    25f0:	0f 90       	pop	r0
    25f2:	1f 90       	pop	r1
    25f4:	18 95       	reti

000025f6 <UART_Init>:
uint8_t UART_GetData(uint8_t UartNumber, ptr_uint8_t RxChar) {

   *(RxChar) = (uint8_t) UDR;

   return 0;
}
    25f6:	8a b1       	in	r24, 0x0a	; 10
    25f8:	80 61       	ori	r24, 0x10	; 16
    25fa:	8a b9       	out	0x0a, r24	; 10
    25fc:	8a b1       	in	r24, 0x0a	; 10
    25fe:	88 60       	ori	r24, 0x08	; 8
    2600:	8a b9       	out	0x0a, r24	; 10
    2602:	8b b1       	in	r24, 0x0b	; 11
    2604:	8d 7f       	andi	r24, 0xFD	; 253
    2606:	8b b9       	out	0x0b, r24	; 11
    2608:	8a b1       	in	r24, 0x0a	; 10
    260a:	8b 7f       	andi	r24, 0xFB	; 251
    260c:	8a b9       	out	0x0a, r24	; 10
    260e:	80 b5       	in	r24, 0x20	; 32
    2610:	86 68       	ori	r24, 0x86	; 134
    2612:	80 bd       	out	0x20, r24	; 32
    2614:	83 e3       	ldi	r24, 0x33	; 51
    2616:	89 b9       	out	0x09, r24	; 9
    2618:	80 e0       	ldi	r24, 0x00	; 0
    261a:	08 95       	ret

0000261c <UART_TransmitChar>:
    261c:	6c b9       	out	0x0c, r22	; 12
    261e:	5d 9b       	sbis	0x0b, 5	; 11
    2620:	fe cf       	rjmp	.-4      	; 0x261e <UART_TransmitChar+0x2>
    2622:	80 e0       	ldi	r24, 0x00	; 0
    2624:	08 95       	ret

00002626 <UART_TransmitString>:
    2626:	80 e0       	ldi	r24, 0x00	; 0
    2628:	04 c0       	rjmp	.+8      	; 0x2632 <UART_TransmitString+0xc>
    262a:	9c b9       	out	0x0c, r25	; 12
    262c:	5d 9b       	sbis	0x0b, 5	; 11
    262e:	fe cf       	rjmp	.-4      	; 0x262c <UART_TransmitString+0x6>
    2630:	8f 5f       	subi	r24, 0xFF	; 255
    2632:	fb 01       	movw	r30, r22
    2634:	e8 0f       	add	r30, r24
    2636:	f1 1d       	adc	r31, r1
    2638:	90 81       	ld	r25, Z
    263a:	91 11       	cpse	r25, r1
    263c:	f6 cf       	rjmp	.-20     	; 0x262a <UART_TransmitString+0x4>
    263e:	1c b8       	out	0x0c, r1	; 12
    2640:	5d 9b       	sbis	0x0b, 5	; 11
    2642:	fe cf       	rjmp	.-4      	; 0x2640 <UART_TransmitString+0x1a>
    2644:	8d e0       	ldi	r24, 0x0D	; 13
    2646:	8c b9       	out	0x0c, r24	; 12
    2648:	5d 9b       	sbis	0x0b, 5	; 11
    264a:	fe cf       	rjmp	.-4      	; 0x2648 <UART_TransmitString+0x22>
    264c:	80 e0       	ldi	r24, 0x00	; 0
    264e:	08 95       	ret

00002650 <UART_ReceiveChar>:
    2650:	5f 9b       	sbis	0x0b, 7	; 11
    2652:	fe cf       	rjmp	.-4      	; 0x2650 <UART_ReceiveChar>
    2654:	8c b1       	in	r24, 0x0c	; 12
    2656:	fb 01       	movw	r30, r22
    2658:	80 83       	st	Z, r24
    265a:	80 e0       	ldi	r24, 0x00	; 0
    265c:	08 95       	ret

0000265e <UART_ReceiveString>:
    265e:	90 e0       	ldi	r25, 0x00	; 0
    2660:	02 c0       	rjmp	.+4      	; 0x2666 <UART_ReceiveString+0x8>
    2662:	80 e0       	ldi	r24, 0x00	; 0
    2664:	98 2f       	mov	r25, r24
    2666:	5f 9b       	sbis	0x0b, 7	; 11
    2668:	fe cf       	rjmp	.-4      	; 0x2666 <UART_ReceiveString+0x8>
    266a:	fb 01       	movw	r30, r22
    266c:	e9 0f       	add	r30, r25
    266e:	f1 1d       	adc	r31, r1
    2670:	8c b1       	in	r24, 0x0c	; 12
    2672:	80 83       	st	Z, r24
    2674:	8d 30       	cpi	r24, 0x0D	; 13
    2676:	99 f0       	breq	.+38     	; 0x269e <UART_ReceiveString+0x40>
    2678:	81 e0       	ldi	r24, 0x01	; 1
    267a:	89 0f       	add	r24, r25
    267c:	fb 01       	movw	r30, r22
    267e:	e8 0f       	add	r30, r24
    2680:	f1 1d       	adc	r31, r1
    2682:	31 97       	sbiw	r30, 0x01	; 1
    2684:	20 81       	ld	r18, Z
    2686:	28 30       	cpi	r18, 0x08	; 8
    2688:	29 f4       	brne	.+10     	; 0x2694 <UART_ReceiveString+0x36>
    268a:	82 30       	cpi	r24, 0x02	; 2
    268c:	18 f0       	brcs	.+6      	; 0x2694 <UART_ReceiveString+0x36>
    268e:	8f ef       	ldi	r24, 0xFF	; 255
    2690:	89 0f       	add	r24, r25
    2692:	e8 cf       	rjmp	.-48     	; 0x2664 <UART_ReceiveString+0x6>
    2694:	28 30       	cpi	r18, 0x08	; 8
    2696:	31 f7       	brne	.-52     	; 0x2664 <UART_ReceiveString+0x6>
    2698:	82 30       	cpi	r24, 0x02	; 2
    269a:	20 f7       	brcc	.-56     	; 0x2664 <UART_ReceiveString+0x6>
    269c:	e2 cf       	rjmp	.-60     	; 0x2662 <UART_ReceiveString+0x4>
    269e:	10 82       	st	Z, r1
    26a0:	80 e0       	ldi	r24, 0x00	; 0
    26a2:	08 95       	ret

000026a4 <__vector_13>:

void __vector_13(void) __attribute__((signal)); // USART, Rx Complete
void __vector_13(void) {
    26a4:	1f 92       	push	r1
    26a6:	0f 92       	push	r0
    26a8:	0f b6       	in	r0, 0x3f	; 63
    26aa:	0f 92       	push	r0
    26ac:	11 24       	eor	r1, r1
    26ae:	2f 93       	push	r18
    26b0:	3f 93       	push	r19
    26b2:	4f 93       	push	r20
    26b4:	5f 93       	push	r21
    26b6:	6f 93       	push	r22
    26b8:	7f 93       	push	r23
    26ba:	8f 93       	push	r24
    26bc:	9f 93       	push	r25
    26be:	af 93       	push	r26
    26c0:	bf 93       	push	r27
    26c2:	ef 93       	push	r30
    26c4:	ff 93       	push	r31
	Gptr_uartRxInt();
    26c6:	e0 91 b6 04 	lds	r30, 0x04B6	; 0x8004b6 <Gptr_uartRxInt>
    26ca:	f0 91 b7 04 	lds	r31, 0x04B7	; 0x8004b7 <Gptr_uartRxInt+0x1>
    26ce:	09 95       	icall
}
    26d0:	ff 91       	pop	r31
    26d2:	ef 91       	pop	r30
    26d4:	bf 91       	pop	r27
    26d6:	af 91       	pop	r26
    26d8:	9f 91       	pop	r25
    26da:	8f 91       	pop	r24
    26dc:	7f 91       	pop	r23
    26de:	6f 91       	pop	r22
    26e0:	5f 91       	pop	r21
    26e2:	4f 91       	pop	r20
    26e4:	3f 91       	pop	r19
    26e6:	2f 91       	pop	r18
    26e8:	0f 90       	pop	r0
    26ea:	0f be       	out	0x3f, r0	; 63
    26ec:	0f 90       	pop	r0
    26ee:	1f 90       	pop	r1
    26f0:	18 95       	reti

000026f2 <__vector_14>:
void __vector_14(void) __attribute__((signal)); // USART Data Register Empty
void __vector_14(void) {
    26f2:	1f 92       	push	r1
    26f4:	0f 92       	push	r0
    26f6:	0f b6       	in	r0, 0x3f	; 63
    26f8:	0f 92       	push	r0
    26fa:	11 24       	eor	r1, r1
    26fc:	2f 93       	push	r18
    26fe:	3f 93       	push	r19
    2700:	4f 93       	push	r20
    2702:	5f 93       	push	r21
    2704:	6f 93       	push	r22
    2706:	7f 93       	push	r23
    2708:	8f 93       	push	r24
    270a:	9f 93       	push	r25
    270c:	af 93       	push	r26
    270e:	bf 93       	push	r27
    2710:	ef 93       	push	r30
    2712:	ff 93       	push	r31
	Gptr_uartDataEmptyRegInt();
    2714:	e0 91 ba 04 	lds	r30, 0x04BA	; 0x8004ba <Gptr_uartDataEmptyRegInt>
    2718:	f0 91 bb 04 	lds	r31, 0x04BB	; 0x8004bb <Gptr_uartDataEmptyRegInt+0x1>
    271c:	09 95       	icall
}
    271e:	ff 91       	pop	r31
    2720:	ef 91       	pop	r30
    2722:	bf 91       	pop	r27
    2724:	af 91       	pop	r26
    2726:	9f 91       	pop	r25
    2728:	8f 91       	pop	r24
    272a:	7f 91       	pop	r23
    272c:	6f 91       	pop	r22
    272e:	5f 91       	pop	r21
    2730:	4f 91       	pop	r20
    2732:	3f 91       	pop	r19
    2734:	2f 91       	pop	r18
    2736:	0f 90       	pop	r0
    2738:	0f be       	out	0x3f, r0	; 63
    273a:	0f 90       	pop	r0
    273c:	1f 90       	pop	r1
    273e:	18 95       	reti

00002740 <__vector_15>:
void __vector_15(void) __attribute__((signal)); // USART, Tx Complete
void __vector_15(void) {
    2740:	1f 92       	push	r1
    2742:	0f 92       	push	r0
    2744:	0f b6       	in	r0, 0x3f	; 63
    2746:	0f 92       	push	r0
    2748:	11 24       	eor	r1, r1
    274a:	2f 93       	push	r18
    274c:	3f 93       	push	r19
    274e:	4f 93       	push	r20
    2750:	5f 93       	push	r21
    2752:	6f 93       	push	r22
    2754:	7f 93       	push	r23
    2756:	8f 93       	push	r24
    2758:	9f 93       	push	r25
    275a:	af 93       	push	r26
    275c:	bf 93       	push	r27
    275e:	ef 93       	push	r30
    2760:	ff 93       	push	r31
	Gptr_uartTxInt();
    2762:	e0 91 b8 04 	lds	r30, 0x04B8	; 0x8004b8 <Gptr_uartTxInt>
    2766:	f0 91 b9 04 	lds	r31, 0x04B9	; 0x8004b9 <Gptr_uartTxInt+0x1>
    276a:	09 95       	icall
}
    276c:	ff 91       	pop	r31
    276e:	ef 91       	pop	r30
    2770:	bf 91       	pop	r27
    2772:	af 91       	pop	r26
    2774:	9f 91       	pop	r25
    2776:	8f 91       	pop	r24
    2778:	7f 91       	pop	r23
    277a:	6f 91       	pop	r22
    277c:	5f 91       	pop	r21
    277e:	4f 91       	pop	r20
    2780:	3f 91       	pop	r19
    2782:	2f 91       	pop	r18
    2784:	0f 90       	pop	r0
    2786:	0f be       	out	0x3f, r0	; 63
    2788:	0f 90       	pop	r0
    278a:	1f 90       	pop	r1
    278c:	18 95       	reti

0000278e <__subsf3>:
    278e:	50 58       	subi	r21, 0x80	; 128

00002790 <__addsf3>:
    2790:	bb 27       	eor	r27, r27
    2792:	aa 27       	eor	r26, r26
    2794:	0e 94 df 13 	call	0x27be	; 0x27be <__addsf3x>
    2798:	0c 94 52 15 	jmp	0x2aa4	; 0x2aa4 <__fp_round>
    279c:	0e 94 44 15 	call	0x2a88	; 0x2a88 <__fp_pscA>
    27a0:	38 f0       	brcs	.+14     	; 0x27b0 <__addsf3+0x20>
    27a2:	0e 94 4b 15 	call	0x2a96	; 0x2a96 <__fp_pscB>
    27a6:	20 f0       	brcs	.+8      	; 0x27b0 <__addsf3+0x20>
    27a8:	39 f4       	brne	.+14     	; 0x27b8 <__addsf3+0x28>
    27aa:	9f 3f       	cpi	r25, 0xFF	; 255
    27ac:	19 f4       	brne	.+6      	; 0x27b4 <__addsf3+0x24>
    27ae:	26 f4       	brtc	.+8      	; 0x27b8 <__addsf3+0x28>
    27b0:	0c 94 41 15 	jmp	0x2a82	; 0x2a82 <__fp_nan>
    27b4:	0e f4       	brtc	.+2      	; 0x27b8 <__addsf3+0x28>
    27b6:	e0 95       	com	r30
    27b8:	e7 fb       	bst	r30, 7
    27ba:	0c 94 3b 15 	jmp	0x2a76	; 0x2a76 <__fp_inf>

000027be <__addsf3x>:
    27be:	e9 2f       	mov	r30, r25
    27c0:	0e 94 63 15 	call	0x2ac6	; 0x2ac6 <__fp_split3>
    27c4:	58 f3       	brcs	.-42     	; 0x279c <__addsf3+0xc>
    27c6:	ba 17       	cp	r27, r26
    27c8:	62 07       	cpc	r22, r18
    27ca:	73 07       	cpc	r23, r19
    27cc:	84 07       	cpc	r24, r20
    27ce:	95 07       	cpc	r25, r21
    27d0:	20 f0       	brcs	.+8      	; 0x27da <__addsf3x+0x1c>
    27d2:	79 f4       	brne	.+30     	; 0x27f2 <__addsf3x+0x34>
    27d4:	a6 f5       	brtc	.+104    	; 0x283e <__addsf3x+0x80>
    27d6:	0c 94 85 15 	jmp	0x2b0a	; 0x2b0a <__fp_zero>
    27da:	0e f4       	brtc	.+2      	; 0x27de <__addsf3x+0x20>
    27dc:	e0 95       	com	r30
    27de:	0b 2e       	mov	r0, r27
    27e0:	ba 2f       	mov	r27, r26
    27e2:	a0 2d       	mov	r26, r0
    27e4:	0b 01       	movw	r0, r22
    27e6:	b9 01       	movw	r22, r18
    27e8:	90 01       	movw	r18, r0
    27ea:	0c 01       	movw	r0, r24
    27ec:	ca 01       	movw	r24, r20
    27ee:	a0 01       	movw	r20, r0
    27f0:	11 24       	eor	r1, r1
    27f2:	ff 27       	eor	r31, r31
    27f4:	59 1b       	sub	r21, r25
    27f6:	99 f0       	breq	.+38     	; 0x281e <__addsf3x+0x60>
    27f8:	59 3f       	cpi	r21, 0xF9	; 249
    27fa:	50 f4       	brcc	.+20     	; 0x2810 <__addsf3x+0x52>
    27fc:	50 3e       	cpi	r21, 0xE0	; 224
    27fe:	68 f1       	brcs	.+90     	; 0x285a <__addsf3x+0x9c>
    2800:	1a 16       	cp	r1, r26
    2802:	f0 40       	sbci	r31, 0x00	; 0
    2804:	a2 2f       	mov	r26, r18
    2806:	23 2f       	mov	r18, r19
    2808:	34 2f       	mov	r19, r20
    280a:	44 27       	eor	r20, r20
    280c:	58 5f       	subi	r21, 0xF8	; 248
    280e:	f3 cf       	rjmp	.-26     	; 0x27f6 <__addsf3x+0x38>
    2810:	46 95       	lsr	r20
    2812:	37 95       	ror	r19
    2814:	27 95       	ror	r18
    2816:	a7 95       	ror	r26
    2818:	f0 40       	sbci	r31, 0x00	; 0
    281a:	53 95       	inc	r21
    281c:	c9 f7       	brne	.-14     	; 0x2810 <__addsf3x+0x52>
    281e:	7e f4       	brtc	.+30     	; 0x283e <__addsf3x+0x80>
    2820:	1f 16       	cp	r1, r31
    2822:	ba 0b       	sbc	r27, r26
    2824:	62 0b       	sbc	r22, r18
    2826:	73 0b       	sbc	r23, r19
    2828:	84 0b       	sbc	r24, r20
    282a:	ba f0       	brmi	.+46     	; 0x285a <__addsf3x+0x9c>
    282c:	91 50       	subi	r25, 0x01	; 1
    282e:	a1 f0       	breq	.+40     	; 0x2858 <__addsf3x+0x9a>
    2830:	ff 0f       	add	r31, r31
    2832:	bb 1f       	adc	r27, r27
    2834:	66 1f       	adc	r22, r22
    2836:	77 1f       	adc	r23, r23
    2838:	88 1f       	adc	r24, r24
    283a:	c2 f7       	brpl	.-16     	; 0x282c <__addsf3x+0x6e>
    283c:	0e c0       	rjmp	.+28     	; 0x285a <__addsf3x+0x9c>
    283e:	ba 0f       	add	r27, r26
    2840:	62 1f       	adc	r22, r18
    2842:	73 1f       	adc	r23, r19
    2844:	84 1f       	adc	r24, r20
    2846:	48 f4       	brcc	.+18     	; 0x285a <__addsf3x+0x9c>
    2848:	87 95       	ror	r24
    284a:	77 95       	ror	r23
    284c:	67 95       	ror	r22
    284e:	b7 95       	ror	r27
    2850:	f7 95       	ror	r31
    2852:	9e 3f       	cpi	r25, 0xFE	; 254
    2854:	08 f0       	brcs	.+2      	; 0x2858 <__addsf3x+0x9a>
    2856:	b0 cf       	rjmp	.-160    	; 0x27b8 <__addsf3+0x28>
    2858:	93 95       	inc	r25
    285a:	88 0f       	add	r24, r24
    285c:	08 f0       	brcs	.+2      	; 0x2860 <__addsf3x+0xa2>
    285e:	99 27       	eor	r25, r25
    2860:	ee 0f       	add	r30, r30
    2862:	97 95       	ror	r25
    2864:	87 95       	ror	r24
    2866:	08 95       	ret

00002868 <__cmpsf2>:
    2868:	0e 94 17 15 	call	0x2a2e	; 0x2a2e <__fp_cmp>
    286c:	08 f4       	brcc	.+2      	; 0x2870 <__cmpsf2+0x8>
    286e:	81 e0       	ldi	r24, 0x01	; 1
    2870:	08 95       	ret

00002872 <__divsf3>:
    2872:	0e 94 4d 14 	call	0x289a	; 0x289a <__divsf3x>
    2876:	0c 94 52 15 	jmp	0x2aa4	; 0x2aa4 <__fp_round>
    287a:	0e 94 4b 15 	call	0x2a96	; 0x2a96 <__fp_pscB>
    287e:	58 f0       	brcs	.+22     	; 0x2896 <__divsf3+0x24>
    2880:	0e 94 44 15 	call	0x2a88	; 0x2a88 <__fp_pscA>
    2884:	40 f0       	brcs	.+16     	; 0x2896 <__divsf3+0x24>
    2886:	29 f4       	brne	.+10     	; 0x2892 <__divsf3+0x20>
    2888:	5f 3f       	cpi	r21, 0xFF	; 255
    288a:	29 f0       	breq	.+10     	; 0x2896 <__divsf3+0x24>
    288c:	0c 94 3b 15 	jmp	0x2a76	; 0x2a76 <__fp_inf>
    2890:	51 11       	cpse	r21, r1
    2892:	0c 94 86 15 	jmp	0x2b0c	; 0x2b0c <__fp_szero>
    2896:	0c 94 41 15 	jmp	0x2a82	; 0x2a82 <__fp_nan>

0000289a <__divsf3x>:
    289a:	0e 94 63 15 	call	0x2ac6	; 0x2ac6 <__fp_split3>
    289e:	68 f3       	brcs	.-38     	; 0x287a <__divsf3+0x8>

000028a0 <__divsf3_pse>:
    28a0:	99 23       	and	r25, r25
    28a2:	b1 f3       	breq	.-20     	; 0x2890 <__divsf3+0x1e>
    28a4:	55 23       	and	r21, r21
    28a6:	91 f3       	breq	.-28     	; 0x288c <__divsf3+0x1a>
    28a8:	95 1b       	sub	r25, r21
    28aa:	55 0b       	sbc	r21, r21
    28ac:	bb 27       	eor	r27, r27
    28ae:	aa 27       	eor	r26, r26
    28b0:	62 17       	cp	r22, r18
    28b2:	73 07       	cpc	r23, r19
    28b4:	84 07       	cpc	r24, r20
    28b6:	38 f0       	brcs	.+14     	; 0x28c6 <__divsf3_pse+0x26>
    28b8:	9f 5f       	subi	r25, 0xFF	; 255
    28ba:	5f 4f       	sbci	r21, 0xFF	; 255
    28bc:	22 0f       	add	r18, r18
    28be:	33 1f       	adc	r19, r19
    28c0:	44 1f       	adc	r20, r20
    28c2:	aa 1f       	adc	r26, r26
    28c4:	a9 f3       	breq	.-22     	; 0x28b0 <__divsf3_pse+0x10>
    28c6:	35 d0       	rcall	.+106    	; 0x2932 <__divsf3_pse+0x92>
    28c8:	0e 2e       	mov	r0, r30
    28ca:	3a f0       	brmi	.+14     	; 0x28da <__divsf3_pse+0x3a>
    28cc:	e0 e8       	ldi	r30, 0x80	; 128
    28ce:	32 d0       	rcall	.+100    	; 0x2934 <__divsf3_pse+0x94>
    28d0:	91 50       	subi	r25, 0x01	; 1
    28d2:	50 40       	sbci	r21, 0x00	; 0
    28d4:	e6 95       	lsr	r30
    28d6:	00 1c       	adc	r0, r0
    28d8:	ca f7       	brpl	.-14     	; 0x28cc <__divsf3_pse+0x2c>
    28da:	2b d0       	rcall	.+86     	; 0x2932 <__divsf3_pse+0x92>
    28dc:	fe 2f       	mov	r31, r30
    28de:	29 d0       	rcall	.+82     	; 0x2932 <__divsf3_pse+0x92>
    28e0:	66 0f       	add	r22, r22
    28e2:	77 1f       	adc	r23, r23
    28e4:	88 1f       	adc	r24, r24
    28e6:	bb 1f       	adc	r27, r27
    28e8:	26 17       	cp	r18, r22
    28ea:	37 07       	cpc	r19, r23
    28ec:	48 07       	cpc	r20, r24
    28ee:	ab 07       	cpc	r26, r27
    28f0:	b0 e8       	ldi	r27, 0x80	; 128
    28f2:	09 f0       	breq	.+2      	; 0x28f6 <__divsf3_pse+0x56>
    28f4:	bb 0b       	sbc	r27, r27
    28f6:	80 2d       	mov	r24, r0
    28f8:	bf 01       	movw	r22, r30
    28fa:	ff 27       	eor	r31, r31
    28fc:	93 58       	subi	r25, 0x83	; 131
    28fe:	5f 4f       	sbci	r21, 0xFF	; 255
    2900:	3a f0       	brmi	.+14     	; 0x2910 <__divsf3_pse+0x70>
    2902:	9e 3f       	cpi	r25, 0xFE	; 254
    2904:	51 05       	cpc	r21, r1
    2906:	78 f0       	brcs	.+30     	; 0x2926 <__divsf3_pse+0x86>
    2908:	0c 94 3b 15 	jmp	0x2a76	; 0x2a76 <__fp_inf>
    290c:	0c 94 86 15 	jmp	0x2b0c	; 0x2b0c <__fp_szero>
    2910:	5f 3f       	cpi	r21, 0xFF	; 255
    2912:	e4 f3       	brlt	.-8      	; 0x290c <__divsf3_pse+0x6c>
    2914:	98 3e       	cpi	r25, 0xE8	; 232
    2916:	d4 f3       	brlt	.-12     	; 0x290c <__divsf3_pse+0x6c>
    2918:	86 95       	lsr	r24
    291a:	77 95       	ror	r23
    291c:	67 95       	ror	r22
    291e:	b7 95       	ror	r27
    2920:	f7 95       	ror	r31
    2922:	9f 5f       	subi	r25, 0xFF	; 255
    2924:	c9 f7       	brne	.-14     	; 0x2918 <__divsf3_pse+0x78>
    2926:	88 0f       	add	r24, r24
    2928:	91 1d       	adc	r25, r1
    292a:	96 95       	lsr	r25
    292c:	87 95       	ror	r24
    292e:	97 f9       	bld	r25, 7
    2930:	08 95       	ret
    2932:	e1 e0       	ldi	r30, 0x01	; 1
    2934:	66 0f       	add	r22, r22
    2936:	77 1f       	adc	r23, r23
    2938:	88 1f       	adc	r24, r24
    293a:	bb 1f       	adc	r27, r27
    293c:	62 17       	cp	r22, r18
    293e:	73 07       	cpc	r23, r19
    2940:	84 07       	cpc	r24, r20
    2942:	ba 07       	cpc	r27, r26
    2944:	20 f0       	brcs	.+8      	; 0x294e <__divsf3_pse+0xae>
    2946:	62 1b       	sub	r22, r18
    2948:	73 0b       	sbc	r23, r19
    294a:	84 0b       	sbc	r24, r20
    294c:	ba 0b       	sbc	r27, r26
    294e:	ee 1f       	adc	r30, r30
    2950:	88 f7       	brcc	.-30     	; 0x2934 <__divsf3_pse+0x94>
    2952:	e0 95       	com	r30
    2954:	08 95       	ret

00002956 <__fixunssfsi>:
    2956:	0e 94 6b 15 	call	0x2ad6	; 0x2ad6 <__fp_splitA>
    295a:	88 f0       	brcs	.+34     	; 0x297e <__fixunssfsi+0x28>
    295c:	9f 57       	subi	r25, 0x7F	; 127
    295e:	98 f0       	brcs	.+38     	; 0x2986 <__fixunssfsi+0x30>
    2960:	b9 2f       	mov	r27, r25
    2962:	99 27       	eor	r25, r25
    2964:	b7 51       	subi	r27, 0x17	; 23
    2966:	b0 f0       	brcs	.+44     	; 0x2994 <__fixunssfsi+0x3e>
    2968:	e1 f0       	breq	.+56     	; 0x29a2 <__fixunssfsi+0x4c>
    296a:	66 0f       	add	r22, r22
    296c:	77 1f       	adc	r23, r23
    296e:	88 1f       	adc	r24, r24
    2970:	99 1f       	adc	r25, r25
    2972:	1a f0       	brmi	.+6      	; 0x297a <__fixunssfsi+0x24>
    2974:	ba 95       	dec	r27
    2976:	c9 f7       	brne	.-14     	; 0x296a <__fixunssfsi+0x14>
    2978:	14 c0       	rjmp	.+40     	; 0x29a2 <__fixunssfsi+0x4c>
    297a:	b1 30       	cpi	r27, 0x01	; 1
    297c:	91 f0       	breq	.+36     	; 0x29a2 <__fixunssfsi+0x4c>
    297e:	0e 94 85 15 	call	0x2b0a	; 0x2b0a <__fp_zero>
    2982:	b1 e0       	ldi	r27, 0x01	; 1
    2984:	08 95       	ret
    2986:	0c 94 85 15 	jmp	0x2b0a	; 0x2b0a <__fp_zero>
    298a:	67 2f       	mov	r22, r23
    298c:	78 2f       	mov	r23, r24
    298e:	88 27       	eor	r24, r24
    2990:	b8 5f       	subi	r27, 0xF8	; 248
    2992:	39 f0       	breq	.+14     	; 0x29a2 <__fixunssfsi+0x4c>
    2994:	b9 3f       	cpi	r27, 0xF9	; 249
    2996:	cc f3       	brlt	.-14     	; 0x298a <__fixunssfsi+0x34>
    2998:	86 95       	lsr	r24
    299a:	77 95       	ror	r23
    299c:	67 95       	ror	r22
    299e:	b3 95       	inc	r27
    29a0:	d9 f7       	brne	.-10     	; 0x2998 <__fixunssfsi+0x42>
    29a2:	3e f4       	brtc	.+14     	; 0x29b2 <__fixunssfsi+0x5c>
    29a4:	90 95       	com	r25
    29a6:	80 95       	com	r24
    29a8:	70 95       	com	r23
    29aa:	61 95       	neg	r22
    29ac:	7f 4f       	sbci	r23, 0xFF	; 255
    29ae:	8f 4f       	sbci	r24, 0xFF	; 255
    29b0:	9f 4f       	sbci	r25, 0xFF	; 255
    29b2:	08 95       	ret

000029b4 <__floatunsisf>:
    29b4:	e8 94       	clt
    29b6:	09 c0       	rjmp	.+18     	; 0x29ca <__floatsisf+0x12>

000029b8 <__floatsisf>:
    29b8:	97 fb       	bst	r25, 7
    29ba:	3e f4       	brtc	.+14     	; 0x29ca <__floatsisf+0x12>
    29bc:	90 95       	com	r25
    29be:	80 95       	com	r24
    29c0:	70 95       	com	r23
    29c2:	61 95       	neg	r22
    29c4:	7f 4f       	sbci	r23, 0xFF	; 255
    29c6:	8f 4f       	sbci	r24, 0xFF	; 255
    29c8:	9f 4f       	sbci	r25, 0xFF	; 255
    29ca:	99 23       	and	r25, r25
    29cc:	a9 f0       	breq	.+42     	; 0x29f8 <__floatsisf+0x40>
    29ce:	f9 2f       	mov	r31, r25
    29d0:	96 e9       	ldi	r25, 0x96	; 150
    29d2:	bb 27       	eor	r27, r27
    29d4:	93 95       	inc	r25
    29d6:	f6 95       	lsr	r31
    29d8:	87 95       	ror	r24
    29da:	77 95       	ror	r23
    29dc:	67 95       	ror	r22
    29de:	b7 95       	ror	r27
    29e0:	f1 11       	cpse	r31, r1
    29e2:	f8 cf       	rjmp	.-16     	; 0x29d4 <__floatsisf+0x1c>
    29e4:	fa f4       	brpl	.+62     	; 0x2a24 <__floatsisf+0x6c>
    29e6:	bb 0f       	add	r27, r27
    29e8:	11 f4       	brne	.+4      	; 0x29ee <__floatsisf+0x36>
    29ea:	60 ff       	sbrs	r22, 0
    29ec:	1b c0       	rjmp	.+54     	; 0x2a24 <__floatsisf+0x6c>
    29ee:	6f 5f       	subi	r22, 0xFF	; 255
    29f0:	7f 4f       	sbci	r23, 0xFF	; 255
    29f2:	8f 4f       	sbci	r24, 0xFF	; 255
    29f4:	9f 4f       	sbci	r25, 0xFF	; 255
    29f6:	16 c0       	rjmp	.+44     	; 0x2a24 <__floatsisf+0x6c>
    29f8:	88 23       	and	r24, r24
    29fa:	11 f0       	breq	.+4      	; 0x2a00 <__floatsisf+0x48>
    29fc:	96 e9       	ldi	r25, 0x96	; 150
    29fe:	11 c0       	rjmp	.+34     	; 0x2a22 <__floatsisf+0x6a>
    2a00:	77 23       	and	r23, r23
    2a02:	21 f0       	breq	.+8      	; 0x2a0c <__floatsisf+0x54>
    2a04:	9e e8       	ldi	r25, 0x8E	; 142
    2a06:	87 2f       	mov	r24, r23
    2a08:	76 2f       	mov	r23, r22
    2a0a:	05 c0       	rjmp	.+10     	; 0x2a16 <__floatsisf+0x5e>
    2a0c:	66 23       	and	r22, r22
    2a0e:	71 f0       	breq	.+28     	; 0x2a2c <__floatsisf+0x74>
    2a10:	96 e8       	ldi	r25, 0x86	; 134
    2a12:	86 2f       	mov	r24, r22
    2a14:	70 e0       	ldi	r23, 0x00	; 0
    2a16:	60 e0       	ldi	r22, 0x00	; 0
    2a18:	2a f0       	brmi	.+10     	; 0x2a24 <__floatsisf+0x6c>
    2a1a:	9a 95       	dec	r25
    2a1c:	66 0f       	add	r22, r22
    2a1e:	77 1f       	adc	r23, r23
    2a20:	88 1f       	adc	r24, r24
    2a22:	da f7       	brpl	.-10     	; 0x2a1a <__floatsisf+0x62>
    2a24:	88 0f       	add	r24, r24
    2a26:	96 95       	lsr	r25
    2a28:	87 95       	ror	r24
    2a2a:	97 f9       	bld	r25, 7
    2a2c:	08 95       	ret

00002a2e <__fp_cmp>:
    2a2e:	99 0f       	add	r25, r25
    2a30:	00 08       	sbc	r0, r0
    2a32:	55 0f       	add	r21, r21
    2a34:	aa 0b       	sbc	r26, r26
    2a36:	e0 e8       	ldi	r30, 0x80	; 128
    2a38:	fe ef       	ldi	r31, 0xFE	; 254
    2a3a:	16 16       	cp	r1, r22
    2a3c:	17 06       	cpc	r1, r23
    2a3e:	e8 07       	cpc	r30, r24
    2a40:	f9 07       	cpc	r31, r25
    2a42:	c0 f0       	brcs	.+48     	; 0x2a74 <__fp_cmp+0x46>
    2a44:	12 16       	cp	r1, r18
    2a46:	13 06       	cpc	r1, r19
    2a48:	e4 07       	cpc	r30, r20
    2a4a:	f5 07       	cpc	r31, r21
    2a4c:	98 f0       	brcs	.+38     	; 0x2a74 <__fp_cmp+0x46>
    2a4e:	62 1b       	sub	r22, r18
    2a50:	73 0b       	sbc	r23, r19
    2a52:	84 0b       	sbc	r24, r20
    2a54:	95 0b       	sbc	r25, r21
    2a56:	39 f4       	brne	.+14     	; 0x2a66 <__fp_cmp+0x38>
    2a58:	0a 26       	eor	r0, r26
    2a5a:	61 f0       	breq	.+24     	; 0x2a74 <__fp_cmp+0x46>
    2a5c:	23 2b       	or	r18, r19
    2a5e:	24 2b       	or	r18, r20
    2a60:	25 2b       	or	r18, r21
    2a62:	21 f4       	brne	.+8      	; 0x2a6c <__fp_cmp+0x3e>
    2a64:	08 95       	ret
    2a66:	0a 26       	eor	r0, r26
    2a68:	09 f4       	brne	.+2      	; 0x2a6c <__fp_cmp+0x3e>
    2a6a:	a1 40       	sbci	r26, 0x01	; 1
    2a6c:	a6 95       	lsr	r26
    2a6e:	8f ef       	ldi	r24, 0xFF	; 255
    2a70:	81 1d       	adc	r24, r1
    2a72:	81 1d       	adc	r24, r1
    2a74:	08 95       	ret

00002a76 <__fp_inf>:
    2a76:	97 f9       	bld	r25, 7
    2a78:	9f 67       	ori	r25, 0x7F	; 127
    2a7a:	80 e8       	ldi	r24, 0x80	; 128
    2a7c:	70 e0       	ldi	r23, 0x00	; 0
    2a7e:	60 e0       	ldi	r22, 0x00	; 0
    2a80:	08 95       	ret

00002a82 <__fp_nan>:
    2a82:	9f ef       	ldi	r25, 0xFF	; 255
    2a84:	80 ec       	ldi	r24, 0xC0	; 192
    2a86:	08 95       	ret

00002a88 <__fp_pscA>:
    2a88:	00 24       	eor	r0, r0
    2a8a:	0a 94       	dec	r0
    2a8c:	16 16       	cp	r1, r22
    2a8e:	17 06       	cpc	r1, r23
    2a90:	18 06       	cpc	r1, r24
    2a92:	09 06       	cpc	r0, r25
    2a94:	08 95       	ret

00002a96 <__fp_pscB>:
    2a96:	00 24       	eor	r0, r0
    2a98:	0a 94       	dec	r0
    2a9a:	12 16       	cp	r1, r18
    2a9c:	13 06       	cpc	r1, r19
    2a9e:	14 06       	cpc	r1, r20
    2aa0:	05 06       	cpc	r0, r21
    2aa2:	08 95       	ret

00002aa4 <__fp_round>:
    2aa4:	09 2e       	mov	r0, r25
    2aa6:	03 94       	inc	r0
    2aa8:	00 0c       	add	r0, r0
    2aaa:	11 f4       	brne	.+4      	; 0x2ab0 <__fp_round+0xc>
    2aac:	88 23       	and	r24, r24
    2aae:	52 f0       	brmi	.+20     	; 0x2ac4 <__fp_round+0x20>
    2ab0:	bb 0f       	add	r27, r27
    2ab2:	40 f4       	brcc	.+16     	; 0x2ac4 <__fp_round+0x20>
    2ab4:	bf 2b       	or	r27, r31
    2ab6:	11 f4       	brne	.+4      	; 0x2abc <__fp_round+0x18>
    2ab8:	60 ff       	sbrs	r22, 0
    2aba:	04 c0       	rjmp	.+8      	; 0x2ac4 <__fp_round+0x20>
    2abc:	6f 5f       	subi	r22, 0xFF	; 255
    2abe:	7f 4f       	sbci	r23, 0xFF	; 255
    2ac0:	8f 4f       	sbci	r24, 0xFF	; 255
    2ac2:	9f 4f       	sbci	r25, 0xFF	; 255
    2ac4:	08 95       	ret

00002ac6 <__fp_split3>:
    2ac6:	57 fd       	sbrc	r21, 7
    2ac8:	90 58       	subi	r25, 0x80	; 128
    2aca:	44 0f       	add	r20, r20
    2acc:	55 1f       	adc	r21, r21
    2ace:	59 f0       	breq	.+22     	; 0x2ae6 <__fp_splitA+0x10>
    2ad0:	5f 3f       	cpi	r21, 0xFF	; 255
    2ad2:	71 f0       	breq	.+28     	; 0x2af0 <__fp_splitA+0x1a>
    2ad4:	47 95       	ror	r20

00002ad6 <__fp_splitA>:
    2ad6:	88 0f       	add	r24, r24
    2ad8:	97 fb       	bst	r25, 7
    2ada:	99 1f       	adc	r25, r25
    2adc:	61 f0       	breq	.+24     	; 0x2af6 <__fp_splitA+0x20>
    2ade:	9f 3f       	cpi	r25, 0xFF	; 255
    2ae0:	79 f0       	breq	.+30     	; 0x2b00 <__fp_splitA+0x2a>
    2ae2:	87 95       	ror	r24
    2ae4:	08 95       	ret
    2ae6:	12 16       	cp	r1, r18
    2ae8:	13 06       	cpc	r1, r19
    2aea:	14 06       	cpc	r1, r20
    2aec:	55 1f       	adc	r21, r21
    2aee:	f2 cf       	rjmp	.-28     	; 0x2ad4 <__fp_split3+0xe>
    2af0:	46 95       	lsr	r20
    2af2:	f1 df       	rcall	.-30     	; 0x2ad6 <__fp_splitA>
    2af4:	08 c0       	rjmp	.+16     	; 0x2b06 <__fp_splitA+0x30>
    2af6:	16 16       	cp	r1, r22
    2af8:	17 06       	cpc	r1, r23
    2afa:	18 06       	cpc	r1, r24
    2afc:	99 1f       	adc	r25, r25
    2afe:	f1 cf       	rjmp	.-30     	; 0x2ae2 <__fp_splitA+0xc>
    2b00:	86 95       	lsr	r24
    2b02:	71 05       	cpc	r23, r1
    2b04:	61 05       	cpc	r22, r1
    2b06:	08 94       	sec
    2b08:	08 95       	ret

00002b0a <__fp_zero>:
    2b0a:	e8 94       	clt

00002b0c <__fp_szero>:
    2b0c:	bb 27       	eor	r27, r27
    2b0e:	66 27       	eor	r22, r22
    2b10:	77 27       	eor	r23, r23
    2b12:	cb 01       	movw	r24, r22
    2b14:	97 f9       	bld	r25, 7
    2b16:	08 95       	ret

00002b18 <__gesf2>:
    2b18:	0e 94 17 15 	call	0x2a2e	; 0x2a2e <__fp_cmp>
    2b1c:	08 f4       	brcc	.+2      	; 0x2b20 <__gesf2+0x8>
    2b1e:	8f ef       	ldi	r24, 0xFF	; 255
    2b20:	08 95       	ret

00002b22 <__mulsf3>:
    2b22:	0e 94 a4 15 	call	0x2b48	; 0x2b48 <__mulsf3x>
    2b26:	0c 94 52 15 	jmp	0x2aa4	; 0x2aa4 <__fp_round>
    2b2a:	0e 94 44 15 	call	0x2a88	; 0x2a88 <__fp_pscA>
    2b2e:	38 f0       	brcs	.+14     	; 0x2b3e <__mulsf3+0x1c>
    2b30:	0e 94 4b 15 	call	0x2a96	; 0x2a96 <__fp_pscB>
    2b34:	20 f0       	brcs	.+8      	; 0x2b3e <__mulsf3+0x1c>
    2b36:	95 23       	and	r25, r21
    2b38:	11 f0       	breq	.+4      	; 0x2b3e <__mulsf3+0x1c>
    2b3a:	0c 94 3b 15 	jmp	0x2a76	; 0x2a76 <__fp_inf>
    2b3e:	0c 94 41 15 	jmp	0x2a82	; 0x2a82 <__fp_nan>
    2b42:	11 24       	eor	r1, r1
    2b44:	0c 94 86 15 	jmp	0x2b0c	; 0x2b0c <__fp_szero>

00002b48 <__mulsf3x>:
    2b48:	0e 94 63 15 	call	0x2ac6	; 0x2ac6 <__fp_split3>
    2b4c:	70 f3       	brcs	.-36     	; 0x2b2a <__mulsf3+0x8>

00002b4e <__mulsf3_pse>:
    2b4e:	95 9f       	mul	r25, r21
    2b50:	c1 f3       	breq	.-16     	; 0x2b42 <__mulsf3+0x20>
    2b52:	95 0f       	add	r25, r21
    2b54:	50 e0       	ldi	r21, 0x00	; 0
    2b56:	55 1f       	adc	r21, r21
    2b58:	62 9f       	mul	r22, r18
    2b5a:	f0 01       	movw	r30, r0
    2b5c:	72 9f       	mul	r23, r18
    2b5e:	bb 27       	eor	r27, r27
    2b60:	f0 0d       	add	r31, r0
    2b62:	b1 1d       	adc	r27, r1
    2b64:	63 9f       	mul	r22, r19
    2b66:	aa 27       	eor	r26, r26
    2b68:	f0 0d       	add	r31, r0
    2b6a:	b1 1d       	adc	r27, r1
    2b6c:	aa 1f       	adc	r26, r26
    2b6e:	64 9f       	mul	r22, r20
    2b70:	66 27       	eor	r22, r22
    2b72:	b0 0d       	add	r27, r0
    2b74:	a1 1d       	adc	r26, r1
    2b76:	66 1f       	adc	r22, r22
    2b78:	82 9f       	mul	r24, r18
    2b7a:	22 27       	eor	r18, r18
    2b7c:	b0 0d       	add	r27, r0
    2b7e:	a1 1d       	adc	r26, r1
    2b80:	62 1f       	adc	r22, r18
    2b82:	73 9f       	mul	r23, r19
    2b84:	b0 0d       	add	r27, r0
    2b86:	a1 1d       	adc	r26, r1
    2b88:	62 1f       	adc	r22, r18
    2b8a:	83 9f       	mul	r24, r19
    2b8c:	a0 0d       	add	r26, r0
    2b8e:	61 1d       	adc	r22, r1
    2b90:	22 1f       	adc	r18, r18
    2b92:	74 9f       	mul	r23, r20
    2b94:	33 27       	eor	r19, r19
    2b96:	a0 0d       	add	r26, r0
    2b98:	61 1d       	adc	r22, r1
    2b9a:	23 1f       	adc	r18, r19
    2b9c:	84 9f       	mul	r24, r20
    2b9e:	60 0d       	add	r22, r0
    2ba0:	21 1d       	adc	r18, r1
    2ba2:	82 2f       	mov	r24, r18
    2ba4:	76 2f       	mov	r23, r22
    2ba6:	6a 2f       	mov	r22, r26
    2ba8:	11 24       	eor	r1, r1
    2baa:	9f 57       	subi	r25, 0x7F	; 127
    2bac:	50 40       	sbci	r21, 0x00	; 0
    2bae:	9a f0       	brmi	.+38     	; 0x2bd6 <__mulsf3_pse+0x88>
    2bb0:	f1 f0       	breq	.+60     	; 0x2bee <__mulsf3_pse+0xa0>
    2bb2:	88 23       	and	r24, r24
    2bb4:	4a f0       	brmi	.+18     	; 0x2bc8 <__mulsf3_pse+0x7a>
    2bb6:	ee 0f       	add	r30, r30
    2bb8:	ff 1f       	adc	r31, r31
    2bba:	bb 1f       	adc	r27, r27
    2bbc:	66 1f       	adc	r22, r22
    2bbe:	77 1f       	adc	r23, r23
    2bc0:	88 1f       	adc	r24, r24
    2bc2:	91 50       	subi	r25, 0x01	; 1
    2bc4:	50 40       	sbci	r21, 0x00	; 0
    2bc6:	a9 f7       	brne	.-22     	; 0x2bb2 <__mulsf3_pse+0x64>
    2bc8:	9e 3f       	cpi	r25, 0xFE	; 254
    2bca:	51 05       	cpc	r21, r1
    2bcc:	80 f0       	brcs	.+32     	; 0x2bee <__mulsf3_pse+0xa0>
    2bce:	0c 94 3b 15 	jmp	0x2a76	; 0x2a76 <__fp_inf>
    2bd2:	0c 94 86 15 	jmp	0x2b0c	; 0x2b0c <__fp_szero>
    2bd6:	5f 3f       	cpi	r21, 0xFF	; 255
    2bd8:	e4 f3       	brlt	.-8      	; 0x2bd2 <__mulsf3_pse+0x84>
    2bda:	98 3e       	cpi	r25, 0xE8	; 232
    2bdc:	d4 f3       	brlt	.-12     	; 0x2bd2 <__mulsf3_pse+0x84>
    2bde:	86 95       	lsr	r24
    2be0:	77 95       	ror	r23
    2be2:	67 95       	ror	r22
    2be4:	b7 95       	ror	r27
    2be6:	f7 95       	ror	r31
    2be8:	e7 95       	ror	r30
    2bea:	9f 5f       	subi	r25, 0xFF	; 255
    2bec:	c1 f7       	brne	.-16     	; 0x2bde <__mulsf3_pse+0x90>
    2bee:	fe 2b       	or	r31, r30
    2bf0:	88 0f       	add	r24, r24
    2bf2:	91 1d       	adc	r25, r1
    2bf4:	96 95       	lsr	r25
    2bf6:	87 95       	ror	r24
    2bf8:	97 f9       	bld	r25, 7
    2bfa:	08 95       	ret

00002bfc <pow>:
    2bfc:	fa 01       	movw	r30, r20
    2bfe:	ee 0f       	add	r30, r30
    2c00:	ff 1f       	adc	r31, r31
    2c02:	30 96       	adiw	r30, 0x00	; 0
    2c04:	21 05       	cpc	r18, r1
    2c06:	31 05       	cpc	r19, r1
    2c08:	a1 f1       	breq	.+104    	; 0x2c72 <pow+0x76>
    2c0a:	61 15       	cp	r22, r1
    2c0c:	71 05       	cpc	r23, r1
    2c0e:	61 f4       	brne	.+24     	; 0x2c28 <pow+0x2c>
    2c10:	80 38       	cpi	r24, 0x80	; 128
    2c12:	bf e3       	ldi	r27, 0x3F	; 63
    2c14:	9b 07       	cpc	r25, r27
    2c16:	49 f1       	breq	.+82     	; 0x2c6a <pow+0x6e>
    2c18:	68 94       	set
    2c1a:	90 38       	cpi	r25, 0x80	; 128
    2c1c:	81 05       	cpc	r24, r1
    2c1e:	61 f0       	breq	.+24     	; 0x2c38 <pow+0x3c>
    2c20:	80 38       	cpi	r24, 0x80	; 128
    2c22:	bf ef       	ldi	r27, 0xFF	; 255
    2c24:	9b 07       	cpc	r25, r27
    2c26:	41 f0       	breq	.+16     	; 0x2c38 <pow+0x3c>
    2c28:	99 23       	and	r25, r25
    2c2a:	4a f5       	brpl	.+82     	; 0x2c7e <pow+0x82>
    2c2c:	ff 3f       	cpi	r31, 0xFF	; 255
    2c2e:	e1 05       	cpc	r30, r1
    2c30:	31 05       	cpc	r19, r1
    2c32:	21 05       	cpc	r18, r1
    2c34:	19 f1       	breq	.+70     	; 0x2c7c <pow+0x80>
    2c36:	e8 94       	clt
    2c38:	08 94       	sec
    2c3a:	e7 95       	ror	r30
    2c3c:	d9 01       	movw	r26, r18
    2c3e:	aa 23       	and	r26, r26
    2c40:	29 f4       	brne	.+10     	; 0x2c4c <pow+0x50>
    2c42:	ab 2f       	mov	r26, r27
    2c44:	be 2f       	mov	r27, r30
    2c46:	f8 5f       	subi	r31, 0xF8	; 248
    2c48:	d0 f3       	brcs	.-12     	; 0x2c3e <pow+0x42>
    2c4a:	10 c0       	rjmp	.+32     	; 0x2c6c <pow+0x70>
    2c4c:	ff 5f       	subi	r31, 0xFF	; 255
    2c4e:	70 f4       	brcc	.+28     	; 0x2c6c <pow+0x70>
    2c50:	a6 95       	lsr	r26
    2c52:	e0 f7       	brcc	.-8      	; 0x2c4c <pow+0x50>
    2c54:	f7 39       	cpi	r31, 0x97	; 151
    2c56:	50 f0       	brcs	.+20     	; 0x2c6c <pow+0x70>
    2c58:	19 f0       	breq	.+6      	; 0x2c60 <pow+0x64>
    2c5a:	ff 3a       	cpi	r31, 0xAF	; 175
    2c5c:	38 f4       	brcc	.+14     	; 0x2c6c <pow+0x70>
    2c5e:	9f 77       	andi	r25, 0x7F	; 127
    2c60:	9f 93       	push	r25
    2c62:	0d d0       	rcall	.+26     	; 0x2c7e <pow+0x82>
    2c64:	0f 90       	pop	r0
    2c66:	07 fc       	sbrc	r0, 7
    2c68:	90 58       	subi	r25, 0x80	; 128
    2c6a:	08 95       	ret
    2c6c:	46 f0       	brts	.+16     	; 0x2c7e <pow+0x82>
    2c6e:	0c 94 41 15 	jmp	0x2a82	; 0x2a82 <__fp_nan>
    2c72:	60 e0       	ldi	r22, 0x00	; 0
    2c74:	70 e0       	ldi	r23, 0x00	; 0
    2c76:	80 e8       	ldi	r24, 0x80	; 128
    2c78:	9f e3       	ldi	r25, 0x3F	; 63
    2c7a:	08 95       	ret
    2c7c:	4f e7       	ldi	r20, 0x7F	; 127
    2c7e:	9f 77       	andi	r25, 0x7F	; 127
    2c80:	5f 93       	push	r21
    2c82:	4f 93       	push	r20
    2c84:	3f 93       	push	r19
    2c86:	2f 93       	push	r18
    2c88:	0e 94 f9 16 	call	0x2df2	; 0x2df2 <log>
    2c8c:	2f 91       	pop	r18
    2c8e:	3f 91       	pop	r19
    2c90:	4f 91       	pop	r20
    2c92:	5f 91       	pop	r21
    2c94:	0e 94 91 15 	call	0x2b22	; 0x2b22 <__mulsf3>
    2c98:	0c 94 56 16 	jmp	0x2cac	; 0x2cac <exp>
    2c9c:	29 f4       	brne	.+10     	; 0x2ca8 <pow+0xac>
    2c9e:	16 f0       	brts	.+4      	; 0x2ca4 <pow+0xa8>
    2ca0:	0c 94 3b 15 	jmp	0x2a76	; 0x2a76 <__fp_inf>
    2ca4:	0c 94 85 15 	jmp	0x2b0a	; 0x2b0a <__fp_zero>
    2ca8:	0c 94 41 15 	jmp	0x2a82	; 0x2a82 <__fp_nan>

00002cac <exp>:
    2cac:	0e 94 6b 15 	call	0x2ad6	; 0x2ad6 <__fp_splitA>
    2cb0:	a8 f3       	brcs	.-22     	; 0x2c9c <pow+0xa0>
    2cb2:	96 38       	cpi	r25, 0x86	; 134
    2cb4:	a0 f7       	brcc	.-24     	; 0x2c9e <pow+0xa2>
    2cb6:	07 f8       	bld	r0, 7
    2cb8:	0f 92       	push	r0
    2cba:	e8 94       	clt
    2cbc:	2b e3       	ldi	r18, 0x3B	; 59
    2cbe:	3a ea       	ldi	r19, 0xAA	; 170
    2cc0:	48 eb       	ldi	r20, 0xB8	; 184
    2cc2:	5f e7       	ldi	r21, 0x7F	; 127
    2cc4:	0e 94 a7 15 	call	0x2b4e	; 0x2b4e <__mulsf3_pse>
    2cc8:	0f 92       	push	r0
    2cca:	0f 92       	push	r0
    2ccc:	0f 92       	push	r0
    2cce:	4d b7       	in	r20, 0x3d	; 61
    2cd0:	5e b7       	in	r21, 0x3e	; 62
    2cd2:	0f 92       	push	r0
    2cd4:	0e 94 41 17 	call	0x2e82	; 0x2e82 <modf>
    2cd8:	e4 e7       	ldi	r30, 0x74	; 116
    2cda:	f0 e0       	ldi	r31, 0x00	; 0
    2cdc:	0e 94 88 16 	call	0x2d10	; 0x2d10 <__fp_powser>
    2ce0:	4f 91       	pop	r20
    2ce2:	5f 91       	pop	r21
    2ce4:	ef 91       	pop	r30
    2ce6:	ff 91       	pop	r31
    2ce8:	e5 95       	asr	r30
    2cea:	ee 1f       	adc	r30, r30
    2cec:	ff 1f       	adc	r31, r31
    2cee:	49 f0       	breq	.+18     	; 0x2d02 <exp+0x56>
    2cf0:	fe 57       	subi	r31, 0x7E	; 126
    2cf2:	e0 68       	ori	r30, 0x80	; 128
    2cf4:	44 27       	eor	r20, r20
    2cf6:	ee 0f       	add	r30, r30
    2cf8:	44 1f       	adc	r20, r20
    2cfa:	fa 95       	dec	r31
    2cfc:	e1 f7       	brne	.-8      	; 0x2cf6 <exp+0x4a>
    2cfe:	41 95       	neg	r20
    2d00:	55 0b       	sbc	r21, r21
    2d02:	0e 94 bb 16 	call	0x2d76	; 0x2d76 <ldexp>
    2d06:	0f 90       	pop	r0
    2d08:	07 fe       	sbrs	r0, 7
    2d0a:	0c 94 af 16 	jmp	0x2d5e	; 0x2d5e <inverse>
    2d0e:	08 95       	ret

00002d10 <__fp_powser>:
    2d10:	df 93       	push	r29
    2d12:	cf 93       	push	r28
    2d14:	1f 93       	push	r17
    2d16:	0f 93       	push	r16
    2d18:	ff 92       	push	r15
    2d1a:	ef 92       	push	r14
    2d1c:	df 92       	push	r13
    2d1e:	7b 01       	movw	r14, r22
    2d20:	8c 01       	movw	r16, r24
    2d22:	68 94       	set
    2d24:	06 c0       	rjmp	.+12     	; 0x2d32 <__fp_powser+0x22>
    2d26:	da 2e       	mov	r13, r26
    2d28:	ef 01       	movw	r28, r30
    2d2a:	0e 94 a4 15 	call	0x2b48	; 0x2b48 <__mulsf3x>
    2d2e:	fe 01       	movw	r30, r28
    2d30:	e8 94       	clt
    2d32:	a5 91       	lpm	r26, Z+
    2d34:	25 91       	lpm	r18, Z+
    2d36:	35 91       	lpm	r19, Z+
    2d38:	45 91       	lpm	r20, Z+
    2d3a:	55 91       	lpm	r21, Z+
    2d3c:	a6 f3       	brts	.-24     	; 0x2d26 <__fp_powser+0x16>
    2d3e:	ef 01       	movw	r28, r30
    2d40:	0e 94 df 13 	call	0x27be	; 0x27be <__addsf3x>
    2d44:	fe 01       	movw	r30, r28
    2d46:	97 01       	movw	r18, r14
    2d48:	a8 01       	movw	r20, r16
    2d4a:	da 94       	dec	r13
    2d4c:	69 f7       	brne	.-38     	; 0x2d28 <__fp_powser+0x18>
    2d4e:	df 90       	pop	r13
    2d50:	ef 90       	pop	r14
    2d52:	ff 90       	pop	r15
    2d54:	0f 91       	pop	r16
    2d56:	1f 91       	pop	r17
    2d58:	cf 91       	pop	r28
    2d5a:	df 91       	pop	r29
    2d5c:	08 95       	ret

00002d5e <inverse>:
    2d5e:	9b 01       	movw	r18, r22
    2d60:	ac 01       	movw	r20, r24
    2d62:	60 e0       	ldi	r22, 0x00	; 0
    2d64:	70 e0       	ldi	r23, 0x00	; 0
    2d66:	80 e8       	ldi	r24, 0x80	; 128
    2d68:	9f e3       	ldi	r25, 0x3F	; 63
    2d6a:	0c 94 39 14 	jmp	0x2872	; 0x2872 <__divsf3>
    2d6e:	0c 94 3b 15 	jmp	0x2a76	; 0x2a76 <__fp_inf>
    2d72:	0c 94 75 17 	jmp	0x2eea	; 0x2eea <__fp_mpack>

00002d76 <ldexp>:
    2d76:	0e 94 6b 15 	call	0x2ad6	; 0x2ad6 <__fp_splitA>
    2d7a:	d8 f3       	brcs	.-10     	; 0x2d72 <inverse+0x14>
    2d7c:	99 23       	and	r25, r25
    2d7e:	c9 f3       	breq	.-14     	; 0x2d72 <inverse+0x14>
    2d80:	94 0f       	add	r25, r20
    2d82:	51 1d       	adc	r21, r1
    2d84:	a3 f3       	brvs	.-24     	; 0x2d6e <inverse+0x10>
    2d86:	91 50       	subi	r25, 0x01	; 1
    2d88:	50 40       	sbci	r21, 0x00	; 0
    2d8a:	94 f0       	brlt	.+36     	; 0x2db0 <ldexp+0x3a>
    2d8c:	59 f0       	breq	.+22     	; 0x2da4 <ldexp+0x2e>
    2d8e:	88 23       	and	r24, r24
    2d90:	32 f0       	brmi	.+12     	; 0x2d9e <ldexp+0x28>
    2d92:	66 0f       	add	r22, r22
    2d94:	77 1f       	adc	r23, r23
    2d96:	88 1f       	adc	r24, r24
    2d98:	91 50       	subi	r25, 0x01	; 1
    2d9a:	50 40       	sbci	r21, 0x00	; 0
    2d9c:	c1 f7       	brne	.-16     	; 0x2d8e <ldexp+0x18>
    2d9e:	9e 3f       	cpi	r25, 0xFE	; 254
    2da0:	51 05       	cpc	r21, r1
    2da2:	2c f7       	brge	.-54     	; 0x2d6e <inverse+0x10>
    2da4:	88 0f       	add	r24, r24
    2da6:	91 1d       	adc	r25, r1
    2da8:	96 95       	lsr	r25
    2daa:	87 95       	ror	r24
    2dac:	97 f9       	bld	r25, 7
    2dae:	08 95       	ret
    2db0:	5f 3f       	cpi	r21, 0xFF	; 255
    2db2:	ac f0       	brlt	.+42     	; 0x2dde <ldexp+0x68>
    2db4:	98 3e       	cpi	r25, 0xE8	; 232
    2db6:	9c f0       	brlt	.+38     	; 0x2dde <ldexp+0x68>
    2db8:	bb 27       	eor	r27, r27
    2dba:	86 95       	lsr	r24
    2dbc:	77 95       	ror	r23
    2dbe:	67 95       	ror	r22
    2dc0:	b7 95       	ror	r27
    2dc2:	08 f4       	brcc	.+2      	; 0x2dc6 <ldexp+0x50>
    2dc4:	b1 60       	ori	r27, 0x01	; 1
    2dc6:	93 95       	inc	r25
    2dc8:	c1 f7       	brne	.-16     	; 0x2dba <ldexp+0x44>
    2dca:	bb 0f       	add	r27, r27
    2dcc:	58 f7       	brcc	.-42     	; 0x2da4 <ldexp+0x2e>
    2dce:	11 f4       	brne	.+4      	; 0x2dd4 <ldexp+0x5e>
    2dd0:	60 ff       	sbrs	r22, 0
    2dd2:	e8 cf       	rjmp	.-48     	; 0x2da4 <ldexp+0x2e>
    2dd4:	6f 5f       	subi	r22, 0xFF	; 255
    2dd6:	7f 4f       	sbci	r23, 0xFF	; 255
    2dd8:	8f 4f       	sbci	r24, 0xFF	; 255
    2dda:	9f 4f       	sbci	r25, 0xFF	; 255
    2ddc:	e3 cf       	rjmp	.-58     	; 0x2da4 <ldexp+0x2e>
    2dde:	0c 94 86 15 	jmp	0x2b0c	; 0x2b0c <__fp_szero>
    2de2:	16 f0       	brts	.+4      	; 0x2de8 <ldexp+0x72>
    2de4:	0c 94 75 17 	jmp	0x2eea	; 0x2eea <__fp_mpack>
    2de8:	0c 94 41 15 	jmp	0x2a82	; 0x2a82 <__fp_nan>
    2dec:	68 94       	set
    2dee:	0c 94 3b 15 	jmp	0x2a76	; 0x2a76 <__fp_inf>

00002df2 <log>:
    2df2:	0e 94 6b 15 	call	0x2ad6	; 0x2ad6 <__fp_splitA>
    2df6:	a8 f3       	brcs	.-22     	; 0x2de2 <ldexp+0x6c>
    2df8:	99 23       	and	r25, r25
    2dfa:	c1 f3       	breq	.-16     	; 0x2dec <ldexp+0x76>
    2dfc:	ae f3       	brts	.-22     	; 0x2de8 <ldexp+0x72>
    2dfe:	df 93       	push	r29
    2e00:	cf 93       	push	r28
    2e02:	1f 93       	push	r17
    2e04:	0f 93       	push	r16
    2e06:	ff 92       	push	r15
    2e08:	c9 2f       	mov	r28, r25
    2e0a:	dd 27       	eor	r29, r29
    2e0c:	88 23       	and	r24, r24
    2e0e:	2a f0       	brmi	.+10     	; 0x2e1a <log+0x28>
    2e10:	21 97       	sbiw	r28, 0x01	; 1
    2e12:	66 0f       	add	r22, r22
    2e14:	77 1f       	adc	r23, r23
    2e16:	88 1f       	adc	r24, r24
    2e18:	da f7       	brpl	.-10     	; 0x2e10 <log+0x1e>
    2e1a:	20 e0       	ldi	r18, 0x00	; 0
    2e1c:	30 e0       	ldi	r19, 0x00	; 0
    2e1e:	40 e8       	ldi	r20, 0x80	; 128
    2e20:	5f eb       	ldi	r21, 0xBF	; 191
    2e22:	9f e3       	ldi	r25, 0x3F	; 63
    2e24:	88 39       	cpi	r24, 0x98	; 152
    2e26:	20 f0       	brcs	.+8      	; 0x2e30 <log+0x3e>
    2e28:	80 3e       	cpi	r24, 0xE0	; 224
    2e2a:	38 f0       	brcs	.+14     	; 0x2e3a <log+0x48>
    2e2c:	21 96       	adiw	r28, 0x01	; 1
    2e2e:	8f 77       	andi	r24, 0x7F	; 127
    2e30:	0e 94 c8 13 	call	0x2790	; 0x2790 <__addsf3>
    2e34:	ec e9       	ldi	r30, 0x9C	; 156
    2e36:	f0 e0       	ldi	r31, 0x00	; 0
    2e38:	04 c0       	rjmp	.+8      	; 0x2e42 <log+0x50>
    2e3a:	0e 94 c8 13 	call	0x2790	; 0x2790 <__addsf3>
    2e3e:	e9 ec       	ldi	r30, 0xC9	; 201
    2e40:	f0 e0       	ldi	r31, 0x00	; 0
    2e42:	0e 94 88 16 	call	0x2d10	; 0x2d10 <__fp_powser>
    2e46:	8b 01       	movw	r16, r22
    2e48:	be 01       	movw	r22, r28
    2e4a:	ec 01       	movw	r28, r24
    2e4c:	fb 2e       	mov	r15, r27
    2e4e:	6f 57       	subi	r22, 0x7F	; 127
    2e50:	71 09       	sbc	r23, r1
    2e52:	75 95       	asr	r23
    2e54:	77 1f       	adc	r23, r23
    2e56:	88 0b       	sbc	r24, r24
    2e58:	99 0b       	sbc	r25, r25
    2e5a:	0e 94 dc 14 	call	0x29b8	; 0x29b8 <__floatsisf>
    2e5e:	28 e1       	ldi	r18, 0x18	; 24
    2e60:	32 e7       	ldi	r19, 0x72	; 114
    2e62:	41 e3       	ldi	r20, 0x31	; 49
    2e64:	5f e3       	ldi	r21, 0x3F	; 63
    2e66:	0e 94 a4 15 	call	0x2b48	; 0x2b48 <__mulsf3x>
    2e6a:	af 2d       	mov	r26, r15
    2e6c:	98 01       	movw	r18, r16
    2e6e:	ae 01       	movw	r20, r28
    2e70:	ff 90       	pop	r15
    2e72:	0f 91       	pop	r16
    2e74:	1f 91       	pop	r17
    2e76:	cf 91       	pop	r28
    2e78:	df 91       	pop	r29
    2e7a:	0e 94 df 13 	call	0x27be	; 0x27be <__addsf3x>
    2e7e:	0c 94 52 15 	jmp	0x2aa4	; 0x2aa4 <__fp_round>

00002e82 <modf>:
    2e82:	fa 01       	movw	r30, r20
    2e84:	dc 01       	movw	r26, r24
    2e86:	aa 0f       	add	r26, r26
    2e88:	bb 1f       	adc	r27, r27
    2e8a:	9b 01       	movw	r18, r22
    2e8c:	ac 01       	movw	r20, r24
    2e8e:	bf 57       	subi	r27, 0x7F	; 127
    2e90:	28 f4       	brcc	.+10     	; 0x2e9c <modf+0x1a>
    2e92:	22 27       	eor	r18, r18
    2e94:	33 27       	eor	r19, r19
    2e96:	44 27       	eor	r20, r20
    2e98:	50 78       	andi	r21, 0x80	; 128
    2e9a:	20 c0       	rjmp	.+64     	; 0x2edc <modf+0x5a>
    2e9c:	b7 51       	subi	r27, 0x17	; 23
    2e9e:	90 f4       	brcc	.+36     	; 0x2ec4 <modf+0x42>
    2ea0:	ab 2f       	mov	r26, r27
    2ea2:	00 24       	eor	r0, r0
    2ea4:	46 95       	lsr	r20
    2ea6:	37 95       	ror	r19
    2ea8:	27 95       	ror	r18
    2eaa:	01 1c       	adc	r0, r1
    2eac:	a3 95       	inc	r26
    2eae:	d2 f3       	brmi	.-12     	; 0x2ea4 <modf+0x22>
    2eb0:	00 20       	and	r0, r0
    2eb2:	71 f0       	breq	.+28     	; 0x2ed0 <modf+0x4e>
    2eb4:	22 0f       	add	r18, r18
    2eb6:	33 1f       	adc	r19, r19
    2eb8:	44 1f       	adc	r20, r20
    2eba:	b3 95       	inc	r27
    2ebc:	da f3       	brmi	.-10     	; 0x2eb4 <modf+0x32>
    2ebe:	0e d0       	rcall	.+28     	; 0x2edc <modf+0x5a>
    2ec0:	0c 94 c7 13 	jmp	0x278e	; 0x278e <__subsf3>
    2ec4:	61 30       	cpi	r22, 0x01	; 1
    2ec6:	71 05       	cpc	r23, r1
    2ec8:	a0 e8       	ldi	r26, 0x80	; 128
    2eca:	8a 07       	cpc	r24, r26
    2ecc:	b9 46       	sbci	r27, 0x69	; 105
    2ece:	30 f4       	brcc	.+12     	; 0x2edc <modf+0x5a>
    2ed0:	9b 01       	movw	r18, r22
    2ed2:	ac 01       	movw	r20, r24
    2ed4:	66 27       	eor	r22, r22
    2ed6:	77 27       	eor	r23, r23
    2ed8:	88 27       	eor	r24, r24
    2eda:	90 78       	andi	r25, 0x80	; 128
    2edc:	30 96       	adiw	r30, 0x00	; 0
    2ede:	21 f0       	breq	.+8      	; 0x2ee8 <modf+0x66>
    2ee0:	20 83       	st	Z, r18
    2ee2:	31 83       	std	Z+1, r19	; 0x01
    2ee4:	42 83       	std	Z+2, r20	; 0x02
    2ee6:	53 83       	std	Z+3, r21	; 0x03
    2ee8:	08 95       	ret

00002eea <__fp_mpack>:
    2eea:	9f 3f       	cpi	r25, 0xFF	; 255
    2eec:	31 f0       	breq	.+12     	; 0x2efa <__fp_mpack_finite+0xc>

00002eee <__fp_mpack_finite>:
    2eee:	91 50       	subi	r25, 0x01	; 1
    2ef0:	20 f4       	brcc	.+8      	; 0x2efa <__fp_mpack_finite+0xc>
    2ef2:	87 95       	ror	r24
    2ef4:	77 95       	ror	r23
    2ef6:	67 95       	ror	r22
    2ef8:	b7 95       	ror	r27
    2efa:	88 0f       	add	r24, r24
    2efc:	91 1d       	adc	r25, r1
    2efe:	96 95       	lsr	r25
    2f00:	87 95       	ror	r24
    2f02:	97 f9       	bld	r25, 7
    2f04:	08 95       	ret

00002f06 <__tablejump2__>:
    2f06:	ee 0f       	add	r30, r30
    2f08:	ff 1f       	adc	r31, r31
    2f0a:	05 90       	lpm	r0, Z+
    2f0c:	f4 91       	lpm	r31, Z
    2f0e:	e0 2d       	mov	r30, r0
    2f10:	09 94       	ijmp

00002f12 <__umulhisi3>:
    2f12:	a2 9f       	mul	r26, r18
    2f14:	b0 01       	movw	r22, r0
    2f16:	b3 9f       	mul	r27, r19
    2f18:	c0 01       	movw	r24, r0
    2f1a:	a3 9f       	mul	r26, r19
    2f1c:	70 0d       	add	r23, r0
    2f1e:	81 1d       	adc	r24, r1
    2f20:	11 24       	eor	r1, r1
    2f22:	91 1d       	adc	r25, r1
    2f24:	b2 9f       	mul	r27, r18
    2f26:	70 0d       	add	r23, r0
    2f28:	81 1d       	adc	r24, r1
    2f2a:	11 24       	eor	r1, r1
    2f2c:	91 1d       	adc	r25, r1
    2f2e:	08 95       	ret

00002f30 <_exit>:
    2f30:	f8 94       	cli

00002f32 <__stop_program>:
    2f32:	ff cf       	rjmp	.-2      	; 0x2f32 <__stop_program>
